gpasm-0.14.1 (Aug 18 2017)   crc16.asm          8-18-2017  19:21:51          PAGE  1


LOC  OBJECT CODE     LINE SOURCE TEXT
  VALUE

                      00001 ;--------------------------------------------------------
                      00002 ; File Created by SDCC : free open source ANSI-C Compiler
                      00003 ; Version 3.2.0 #8004 (Aug 18 2017) (MINGW32)
                      00004 ; This file was generated Fri Aug 18 19:21:51 2017
                      00005 ;--------------------------------------------------------
                      00006 ; PIC16 port for the Microchip 16-bit core micros
                      00007 ;--------------------------------------------------------
                      00008         list    p=18f452
                      00009 
                      00010         radix dec
                      00011 
                      00012 ;--------------------------------------------------------
                      00013 ; public variables in this module
                      00014 ;--------------------------------------------------------
                      00015         global  _crc16
                      00016         global  _crc_table
                      00017 
                      00018 ;--------------------------------------------------------
                      00019 ; extern variables in this module
                      00020 ;--------------------------------------------------------
                      00021         extern  __gptrget1
                      00022         extern  __mulint
                      00023 
                      00024 ;--------------------------------------------------------
                      00025 ;       Equates to used internal registers
                      00026 ;--------------------------------------------------------
  00000FD8            00027 STATUS  equ     0xfd8
  00000FE8            00028 WREG    equ     0xfe8
  00000FF6            00029 TBLPTRL equ     0xff6
  00000FF7            00030 TBLPTRH equ     0xff7
  00000FF8            00031 TBLPTRU equ     0xff8
  00000FF5            00032 TABLAT  equ     0xff5
  00000FE9            00033 FSR0L   equ     0xfe9
  00000FE1            00034 FSR1L   equ     0xfe1
  00000FD9            00035 FSR2L   equ     0xfd9
  00000FE5            00036 POSTDEC1        equ     0xfe5
  00000FE4            00037 PREINC1 equ     0xfe4
  00000FDB            00038 PLUSW2  equ     0xfdb
  00000FF3            00039 PRODL   equ     0xff3
                      00040 
                      00041 
                      00042 ; Internal registers
                      00043 .registers      udata_ovr       0x0000
000000                00044 r0x00   res     1
000001                00045 r0x01   res     1
000002                00046 r0x02   res     1
000003                00047 r0x03   res     1
000004                00048 r0x04   res     1
000005                00049 r0x05   res     1
000006                00050 r0x06   res     1
000007                00051 r0x07   res     1
000008                00052 r0x08   res     1
000009                00053 r0x09   res     1
gpasm-0.14.1 (Aug 18 2017)   crc16.asm          8-18-2017  19:21:51          PAGE  2


LOC  OBJECT CODE     LINE SOURCE TEXT
  VALUE

00000A                00054 r0x0a   res     1
00000B                00055 r0x0b   res     1
00000C                00056 r0x0c   res     1
                      00057 
                      00058 ;--------------------------------------------------------
                      00059 ; global & static initialisations
                      00060 ;--------------------------------------------------------
                      00061 ; I code from now on!
                      00062 ; ; Starting pCode block
                      00063 ; ;ic:1:  _entry($5) :
                      00064 ; ;ic:2:        proc _crc16 [k1 lr0:0 so:0]{ ia0 a2p0 re0 rm0 nos0 ru0 dp0}{unsigned-int function ( unsigned-char generic* fixed, unsigned-long-int fixed, unsigned-int fixed) fixed}
                      00065 S_crc16__crc16  code
000000                00066 _crc16:
                      00067 ;       .line   77; stdlib/crc16.c      uint16_t crc16(uint8_t *data, uint32_t size, uint16_t crc)
000000 CFD9 FFE5      00068         MOVFF   FSR2L, POSTDEC1
000004 CFE1 FFD9      00069         MOVFF   FSR1L, FSR2L
000008 C000 FFE5      00070         MOVFF   r0x00, POSTDEC1
00000C C000 FFE5      00071         MOVFF   r0x01, POSTDEC1
000010 C000 FFE5      00072         MOVFF   r0x02, POSTDEC1
000014 C000 FFE5      00073         MOVFF   r0x03, POSTDEC1
000018 C000 FFE5      00074         MOVFF   r0x04, POSTDEC1
00001C C000 FFE5      00075         MOVFF   r0x05, POSTDEC1
000020 C000 FFE5      00076         MOVFF   r0x06, POSTDEC1
000024 C000 FFE5      00077         MOVFF   r0x07, POSTDEC1
000028 C000 FFE5      00078         MOVFF   r0x08, POSTDEC1
00002C C000 FFE5      00079         MOVFF   r0x09, POSTDEC1
000030 C000 FFE5      00080         MOVFF   r0x0a, POSTDEC1
000034 C000 FFE5      00081         MOVFF   r0x0b, POSTDEC1
000038 C000 FFE5      00082         MOVFF   r0x0c, POSTDEC1
                      00083 ; ;ic:3: iTemp8 [k14 lr3:25 so:0]{ ia0 a2p0 re0 rm0 nos0 ru0 dp0}{unsigned-char generic* fixed}[r0x00 r0x01 r0x02 ] = recv _crc16 [k1 lr0:0 so:0]{ ia0 a2p0 re0 rm0 nos0 ru0 dp0}{unsigned-int function ( unsigned-char generic* fixed, unsigned-long-int fixed, unsigned-int fixed) fixed}
00003C 0E02           00084         MOVLW   0x02
00003E CFDB F000      00085         MOVFF   PLUSW2, r0x00
000042 0E03           00086         MOVLW   0x03
000044 CFDB F000      00087         MOVFF   PLUSW2, r0x01
000048 0E04           00088         MOVLW   0x04
00004A CFDB F000      00089         MOVFF   PLUSW2, r0x02
                      00090 ; ;ic:4: iTemp4 [k9 lr4:25 so:0]{ ia0 a2p0 re0 rm0 nos0 ru0 dp0}{unsigned-long-int fixed}[r0x03 r0x04 r0x05 r0x06 ] = recv _crc16 [k1 lr0:0 so:0]{ ia0 a2p0 re0 rm0 nos0 ru0 dp0}{unsigned-int function ( unsigned-char generic* fixed, unsigned-long-int fixed, unsigned-int fixed) fixed}
00004E 0E05           00091         MOVLW   0x05
000050 CFDB F000      00092         MOVFF   PLUSW2, r0x03
000054 0E06           00093         MOVLW   0x06
000056 CFDB F000      00094         MOVFF   PLUSW2, r0x04
00005A 0E07           00095         MOVLW   0x07
00005C CFDB F000      00096         MOVFF   PLUSW2, r0x05
000060 0E08           00097         MOVLW   0x08
000062 CFDB F000      00098         MOVFF   PLUSW2, r0x06
                      00099 ; ;ic:5: iTemp2 [k6 lr5:27 so:0]{ ia0 a2p0 re1 rm0 nos0 ru0 dp0}{unsigned-int fixed}{ sir@ _crc16_crc_1_1}[r0x07 r0x08 ] = recv _crc16 [k1 lr0:0 so:0]{ ia0 a2p0 re0 rm0 nos0 ru0 dp0}{unsigned-int function ( unsigned-char generic* fixed, unsigned-long-int fixed, unsigned-int fixed) fixed}
000066 0E09           00100         MOVLW   0x09
000068 CFDB F000      00101         MOVFF   PLUSW2, r0x07
00006C 0E0A           00102         MOVLW   0x0a
00006E CFDB F000      00103         MOVFF   PLUSW2, r0x08
                      00104 ; ;ic:6:        iTemp5 [k11 lr6:25 so:0]{ ia0 a2p0 re0 rm1 nos0 ru0 dp0}{const-unsigned-int code* fixed}[remat] = &[_crc_table [k10 lr0:0 so:0]{ ia0 a2p0 re0 rm0 nos0 ru0 dp0}{const-unsigned-int [256d] code}]
                      00105 ; ;ic:8:  _whilecontinue_0($1) :
                      00106 ; ;ic:9:        iTemp3 [k8 lr9:11 so:0]{ ia0 a2p0 re0 rm0 nos1 ru0 dp0}{unsigned-long-int fixed}[r0x09 r0x0a r0x0b r0x0c ] := iTemp4 [k9 lr4:25 so:0]{ ia0 a2p0 re0 rm0 nos0 ru0 dp0}{unsigned-long-int fixed}[r0x03 r0x04 r0x05 r0x06 ]
gpasm-0.14.1 (Aug 18 2017)   crc16.asm          8-18-2017  19:21:51          PAGE  3


LOC  OBJECT CODE     LINE SOURCE TEXT
  VALUE

000072                00107 _00105_DS_:
                      00108 ;       .line   79; stdlib/crc16.c      while (size--)
000072 C000 F000      00109         MOVFF   r0x03, r0x09
000076 C000 F000      00110         MOVFF   r0x04, r0x0a
00007A C000 F000      00111         MOVFF   r0x05, r0x0b
00007E C000 F000      00112         MOVFF   r0x06, r0x0c
                      00113 ; ;ic:10:       iTemp4 [k9 lr4:25 so:0]{ ia0 a2p0 re0 rm0 nos0 ru0 dp0}{unsigned-long-int fixed}[r0x03 r0x04 r0x05 r0x06 ] = iTemp4 [k9 lr4:25 so:0]{ ia0 a2p0 re0 rm0 nos0 ru0 dp0}{unsigned-long-int fixed}[r0x03 r0x04 r0x05 r0x06 ] - 0x1 {const-unsigned-char literal}
000082 0EFF           00114         MOVLW   0xff
000084 2600           00115         ADDWF   r0x03, F
000086 2200           00116         ADDWFC  r0x04, F
000088 2200           00117         ADDWFC  r0x05, F
00008A 2200           00118         ADDWFC  r0x06, F
                      00119 ; ;ic:11:       if iTemp3 [k8 lr9:11 so:0]{ ia0 a2p0 re0 rm0 nos1 ru0 dp0}{unsigned-long-int fixed}[r0x09 r0x0a r0x0b r0x0c ] == 0 goto _whilebreak_0($3)
00008C 5000           00120         MOVF    r0x09, W
00008E 1000           00121         IORWF   r0x0a, W
000090 1000           00122         IORWF   r0x0b, W
000092 1000           00123         IORWF   r0x0c, W
000094 E000           00124         BZ      _00107_DS_
                      00125 ; ;ic:12:       iTemp6 [k12 lr12:16 so:0]{ ia0 a2p0 re0 rm0 nos0 ru0 dp0}{unsigned-int fixed}[r0x09 r0x0a ] = iTemp2 [k6 lr5:27 so:0]{ ia0 a2p0 re1 rm0 nos0 ru0 dp0}{unsigned-int fixed}{ sir@ _crc16_crc_1_1}[r0x07 r0x08 ] >> 0x8 {const-unsigned-char literal}
                      00126 ;       .line   80; stdlib/crc16.c      crc = crc_table[((crc >> 8) ^ *(data++)) & 0xffU] ^ (crc << 8);
000096 5000           00127         MOVF    r0x08, W
000098 6E00           00128         MOVWF   r0x09
                      00129 ; ;ic:13:       iTemp9 [k15 lr13:15 so:0]{ ia0 a2p0 re0 rm0 nos0 ru0 dp0}{unsigned-char register}[r0x0b ] = @[iTemp8 [k14 lr3:25 so:0]{ ia1 a2p0 re0 rm0 nos0 ru0 dp0}{unsigned-char generic* fixed}[r0x00 r0x01 r0x02 ] + 0x0 {const-unsigned-char literal}]
00009A C000 FFE9      00130         MOVFF   r0x00, FSR0L
00009E C000 FFF3      00131         MOVFF   r0x01, PRODL
0000A2 5000           00132         MOVF    r0x02, W
0000A4 EC00 F000      00133         CALL    __gptrget1
0000A8 6E00           00134         MOVWF   r0x0b
                      00135 ; ;ic:14:       iTemp8 [k14 lr3:25 so:0]{ ia0 a2p0 re0 rm0 nos0 ru0 dp0}{unsigned-char generic* fixed}[r0x00 r0x01 r0x02 ] = iTemp8 [k14 lr3:25 so:0]{ ia0 a2p0 re0 rm0 nos0 ru0 dp0}{unsigned-char generic* fixed}[r0x00 r0x01 r0x02 ] + 0x1 {const-unsigned-char literal}
0000AA 2A00           00136         INCF    r0x00, F
0000AC E300           00137         BNC     _00115_DS_
0000AE 4A00           00138         INFSNZ  r0x01, F
0000B0 2A00           00139         INCF    r0x02, F
                      00140 ; ;ic:15:       iTemp10 [k16 lr15:16 so:0]{ ia0 a2p0 re0 rm0 nos0 ru0 dp0}{unsigned-int fixed}[r0x0b r0x0c ] = (unsigned-int fixed)iTemp9 [k15 lr13:15 so:0]{ ia0 a2p0 re0 rm0 nos0 ru0 dp0}{unsigned-char register}[r0x0b ]
                      00141 ; ;ic:16:       iTemp11 [k17 lr16:17 so:0]{ ia0 a2p0 re0 rm0 nos0 ru0 dp0}{unsigned-int fixed}[r0x09 r0x0a ] = iTemp6 [k12 lr12:16 so:0]{ ia0 a2p0 re0 rm0 nos0 ru0 dp0}{unsigned-int fixed}[r0x09 r0x0a ] ^ iTemp10 [k16 lr15:16 so:0]{ ia0 a2p0 re0 rm0 nos0 ru0 dp0}{unsigned-int fixed}[r0x0b r0x0c ]
0000B2                00142 _00115_DS_:
0000B2 5000           00143         MOVF    r0x0b, W
0000B4 1A00           00144         XORWF   r0x09, F
                      00145 ; ;ic:17:       iTemp12 [k18 lr17:19 so:0]{ ia0 a2p0 re0 rm0 nos0 ru0 dp0}{unsigned-int register}[r0x09 r0x0a ] = iTemp11 [k17 lr16:17 so:0]{ ia0 a2p0 re0 rm0 nos0 ru0 dp0}{unsigned-int fixed}[r0x09 r0x0a ] & 0xff {const-unsigned-int literal}
                      00146 ; ;ic:18:       send 0x2 {unsigned-int literal}{argreg = 1}
                      00147 ; ;ic:19:       send iTemp12 [k18 lr17:19 so:0]{ ia0 a2p0 re0 rm0 nos0 ru0 dp0}{unsigned-int register}[r0x09 r0x0a ]{argreg = 2}
                      00148 ; ;ic:20:       iTemp13 [k19 lr20:21 so:0]{ ia0 a2p0 re0 rm0 nos0 ru0 dp0}{unsigned-int register}[r0x09 r0x0a ] = call __mulint [k24 lr0:0 so:0]{ ia0 a2p0 re0 rm0 nos0 ru0 dp0}{int function ( int fixed, int fixed) fixed}
0000B6 6AE5           00149         CLRF    POSTDEC1
0000B8 5000           00150         MOVF    r0x09, W
0000BA 6EE5           00151         MOVWF   POSTDEC1
0000BC 6AE5           00152         CLRF    POSTDEC1
0000BE 0E02           00153         MOVLW   0x02
0000C0 6EE5           00154         MOVWF   POSTDEC1
0000C2 EC00 F000      00155         CALL    __mulint
0000C6 6E00           00156         MOVWF   r0x09
0000C8 CFF3 F000      00157         MOVFF   PRODL, r0x0a
0000CC 0E04           00158         MOVLW   0x04
0000CE 26E1           00159         ADDWF   FSR1L, F
gpasm-0.14.1 (Aug 18 2017)   crc16.asm          8-18-2017  19:21:51          PAGE  4


LOC  OBJECT CODE     LINE SOURCE TEXT
  VALUE

                      00160 ; ;ic:21:       iTemp14 [k20 lr21:22 so:0]{ ia1 a2p0 re0 rm0 nos0 ru0 dp0}{const-unsigned-int code* fixed}[r0x09 r0x0a r0x0b ] = iTemp5 [k11 lr6:25 so:0]{ ia0 a2p0 re0 rm1 nos0 ru0 dp0}{const-unsigned-int code* fixed}[remat] + iTemp13 [k19 lr20:21 so:0]{ ia0 a2p0 re0 rm0 nos0 ru0 dp0}{unsigned-int register}[r0x09 r0x0a ]
0000D0 6A00           00161         CLRF    r0x0b
0000D2 0E00           00162         MOVLW   LOW(_crc_table)
0000D4 2600           00163         ADDWF   r0x09, F
0000D6 0E00           00164         MOVLW   HIGH(_crc_table)
0000D8 2200           00165         ADDWFC  r0x0a, F
0000DA 0E00           00166         MOVLW   UPPER(_crc_table)
0000DC 2200           00167         ADDWFC  r0x0b, F
                      00168 ; ;ic:22:       iTemp15 [k21 lr22:24 so:0]{ ia0 a2p0 re0 rm0 nos0 ru0 dp0}{const-unsigned-int register}[r0x09 r0x0a ] = @[iTemp14 [k20 lr21:22 so:0]{ ia1 a2p0 re0 rm0 nos0 ru0 dp0}{const-unsigned-int code* fixed}[r0x09 r0x0a r0x0b ] + 0x0 {const-unsigned-char literal}]
0000DE C000 FFF6      00169         MOVFF   r0x09, TBLPTRL
0000E2 C000 FFF7      00170         MOVFF   r0x0a, TBLPTRH
0000E6 C000 FFF8      00171         MOVFF   r0x0b, TBLPTRU
0000EA 0009           00172         TBLRD*+ 
0000EC CFF5 F000      00173         MOVFF   TABLAT, r0x09
0000F0 0009           00174         TBLRD*+ 
0000F2 CFF5 F000      00175         MOVFF   TABLAT, r0x0a
                      00176 ; ;ic:23:       iTemp16 [k22 lr23:24 so:0]{ ia0 a2p0 re0 rm0 nos0 ru0 dp0}{unsigned-int fixed}[r0x0b r0x0c ] = iTemp2 [k6 lr5:27 so:0]{ ia0 a2p0 re1 rm0 nos0 ru0 dp0}{unsigned-int fixed}{ sir@ _crc16_crc_1_1}[r0x07 r0x08 ] << 0x8 {const-unsigned-char literal}
0000F6 5000           00177         MOVF    r0x07, W
0000F8 6E00           00178         MOVWF   r0x0c
0000FA 6A00           00179         CLRF    r0x0b
                      00180 ; ;ic:24:       iTemp2 [k6 lr5:27 so:0]{ ia0 a2p0 re1 rm0 nos0 ru0 dp0}{unsigned-int fixed}{ sir@ _crc16_crc_1_1}[r0x07 r0x08 ] = iTemp15 [k21 lr22:24 so:0]{ ia0 a2p0 re0 rm0 nos0 ru0 dp0}{const-unsigned-int register}[r0x09 r0x0a ] ^ iTemp16 [k22 lr23:24 so:0]{ ia0 a2p0 re0 rm0 nos0 ru0 dp0}{unsigned-int fixed}[r0x0b r0x0c ]
0000FC 5000           00181         MOVF    r0x0b, W
0000FE 1800           00182         XORWF   r0x09, W
000100 6E00           00183         MOVWF   r0x07
000102 5000           00184         MOVF    r0x0c, W
000104 1800           00185         XORWF   r0x0a, W
000106 6E00           00186         MOVWF   r0x08
                      00187 ; ;ic:25:        goto _whilecontinue_0($1)
000108 D000           00188         BRA     _00105_DS_
                      00189 ; ;ic:26:  _whilebreak_0($3) :
                      00190 ; ;ic:27:       ret iTemp2 [k6 lr5:27 so:0]{ ia0 a2p0 re1 rm0 nos0 ru0 dp0}{unsigned-int fixed}{ sir@ _crc16_crc_1_1}[r0x07 r0x08 ]
00010A                00191 _00107_DS_:
                      00192 ;       .line   82; stdlib/crc16.c      return crc;
00010A C000 FFF3      00193         MOVFF   r0x08, PRODL
00010E 5000           00194         MOVF    r0x07, W
                      00195 ; ;ic:28:  _return($4) :
                      00196 ; ;ic:29:       eproc _crc16 [k1 lr0:0 so:0]{ ia0 a2p0 re0 rm0 nos0 ru0 dp0}{unsigned-int function ( unsigned-char generic* fixed, unsigned-long-int fixed, unsigned-int fixed) fixed}
000110 CFE4 F000      00197         MOVFF   PREINC1, r0x0c
000114 CFE4 F000      00198         MOVFF   PREINC1, r0x0b
000118 CFE4 F000      00199         MOVFF   PREINC1, r0x0a
00011C CFE4 F000      00200         MOVFF   PREINC1, r0x09
000120 CFE4 F000      00201         MOVFF   PREINC1, r0x08
000124 CFE4 F000      00202         MOVFF   PREINC1, r0x07
000128 CFE4 F000      00203         MOVFF   PREINC1, r0x06
00012C CFE4 F000      00204         MOVFF   PREINC1, r0x05
000130 CFE4 F000      00205         MOVFF   PREINC1, r0x04
000134 CFE4 F000      00206         MOVFF   PREINC1, r0x03
000138 CFE4 F000      00207         MOVFF   PREINC1, r0x02
00013C CFE4 F000      00208         MOVFF   PREINC1, r0x01
000140 CFE4 F000      00209         MOVFF   PREINC1, r0x00
000144 CFE4 FFD9      00210         MOVFF   PREINC1, FSR2L
000148 0012           00211         RETURN  
                      00212 
gpasm-0.14.1 (Aug 18 2017)   crc16.asm          8-18-2017  19:21:51          PAGE  5


LOC  OBJECT CODE     LINE SOURCE TEXT
  VALUE

                      00213 ; ; Starting pCode block for Ival
                      00214         code
000000                00215 _crc_table:
000000 0000 1021 2042 00216         DB      0x00, 0x00, 0x21, 0x10, 0x42, 0x20, 0x63, 0x30, 0x84, 0x40, 0xa5, 0x50
       3063 4084 50A5 
00000C 60C6 70E7 8108 00217         DB      0xc6, 0x60, 0xe7, 0x70, 0x08, 0x81, 0x29, 0x91, 0x4a, 0xa1, 0x6b, 0xb1
       9129 A14A B16B 
000018 C18C D1AD E1CE 00218         DB      0x8c, 0xc1, 0xad, 0xd1, 0xce, 0xe1, 0xef, 0xf1, 0x31, 0x12, 0x10, 0x02
       F1EF 1231 0210 
000024 3273 2252 52B5 00219         DB      0x73, 0x32, 0x52, 0x22, 0xb5, 0x52, 0x94, 0x42, 0xf7, 0x72, 0xd6, 0x62
       4294 72F7 62D6 
000030 9339 8318 B37B 00220         DB      0x39, 0x93, 0x18, 0x83, 0x7b, 0xb3, 0x5a, 0xa3, 0xbd, 0xd3, 0x9c, 0xc3
       A35A D3BD C39C 
00003C F3FF E3DE 2462 00221         DB      0xff, 0xf3, 0xde, 0xe3, 0x62, 0x24, 0x43, 0x34, 0x20, 0x04, 0x01, 0x14
       3443 0420 1401 
000048 64E6 74C7 44A4 00222         DB      0xe6, 0x64, 0xc7, 0x74, 0xa4, 0x44, 0x85, 0x54, 0x6a, 0xa5, 0x4b, 0xb5
       5485 A56A B54B 
000054 8528 9509 E5EE 00223         DB      0x28, 0x85, 0x09, 0x95, 0xee, 0xe5, 0xcf, 0xf5, 0xac, 0xc5, 0x8d, 0xd5
       F5CF C5AC D58D 
000060 3653 2672 1611 00224         DB      0x53, 0x36, 0x72, 0x26, 0x11, 0x16, 0x30, 0x06, 0xd7, 0x76, 0xf6, 0x66
       0630 76D7 66F6 
00006C 5695 46B4 B75B 00225         DB      0x95, 0x56, 0xb4, 0x46, 0x5b, 0xb7, 0x7a, 0xa7, 0x19, 0x97, 0x38, 0x87
       A77A 9719 8738 
000078 F7DF E7FE D79D 00226         DB      0xdf, 0xf7, 0xfe, 0xe7, 0x9d, 0xd7, 0xbc, 0xc7, 0xc4, 0x48, 0xe5, 0x58
       C7BC 48C4 58E5 
000084 6886 78A7 0840 00227         DB      0x86, 0x68, 0xa7, 0x78, 0x40, 0x08, 0x61, 0x18, 0x02, 0x28, 0x23, 0x38
       1861 2802 3823 
000090 C9CC D9ED E98E 00228         DB      0xcc, 0xc9, 0xed, 0xd9, 0x8e, 0xe9, 0xaf, 0xf9, 0x48, 0x89, 0x69, 0x99
       F9AF 8948 9969 
00009C A90A B92B 5AF5 00229         DB      0x0a, 0xa9, 0x2b, 0xb9, 0xf5, 0x5a, 0xd4, 0x4a, 0xb7, 0x7a, 0x96, 0x6a
       4AD4 7AB7 6A96 
0000A8 1A71 0A50 3A33 00230         DB      0x71, 0x1a, 0x50, 0x0a, 0x33, 0x3a, 0x12, 0x2a, 0xfd, 0xdb, 0xdc, 0xcb
       2A12 DBFD CBDC 
0000B4 FBBF EB9E 9B79 00231         DB      0xbf, 0xfb, 0x9e, 0xeb, 0x79, 0x9b, 0x58, 0x8b, 0x3b, 0xbb, 0x1a, 0xab
       8B58 BB3B AB1A 
0000C0 6CA6 7C87 4CE4 00232         DB      0xa6, 0x6c, 0x87, 0x7c, 0xe4, 0x4c, 0xc5, 0x5c, 0x22, 0x2c, 0x03, 0x3c
       5CC5 2C22 3C03 
0000CC 0C60 1C41 EDAE 00233         DB      0x60, 0x0c, 0x41, 0x1c, 0xae, 0xed, 0x8f, 0xfd, 0xec, 0xcd, 0xcd, 0xdd
       FD8F CDEC DDCD 
0000D8 AD2A BD0B 8D68 00234         DB      0x2a, 0xad, 0x0b, 0xbd, 0x68, 0x8d, 0x49, 0x9d, 0x97, 0x7e, 0xb6, 0x6e
       9D49 7E97 6EB6 
0000E4 5ED5 4EF4 3E13 00235         DB      0xd5, 0x5e, 0xf4, 0x4e, 0x13, 0x3e, 0x32, 0x2e, 0x51, 0x1e, 0x70, 0x0e
       2E32 1E51 0E70 
0000F0 FF9F EFBE DFDD 00236         DB      0x9f, 0xff, 0xbe, 0xef, 0xdd, 0xdf, 0xfc, 0xcf, 0x1b, 0xbf, 0x3a, 0xaf
       CFFC BF1B AF3A 
0000FC 9F59 8F78 9188 00237         DB      0x59, 0x9f, 0x78, 0x8f, 0x88, 0x91, 0xa9, 0x81, 0xca, 0xb1, 0xeb, 0xa1
       81A9 B1CA A1EB 
000108 D10C C12D F14E 00238         DB      0x0c, 0xd1, 0x2d, 0xc1, 0x4e, 0xf1, 0x6f, 0xe1, 0x80, 0x10, 0xa1, 0x00
       E16F 1080 00A1 
000114 30C2 20E3 5004 00239         DB      0xc2, 0x30, 0xe3, 0x20, 0x04, 0x50, 0x25, 0x40, 0x46, 0x70, 0x67, 0x60
       4025 7046 6067 
000120 83B9 9398 A3FB 00240         DB      0xb9, 0x83, 0x98, 0x93, 0xfb, 0xa3, 0xda, 0xb3, 0x3d, 0xc3, 0x1c, 0xd3
       B3DA C33D D31C 
gpasm-0.14.1 (Aug 18 2017)   crc16.asm          8-18-2017  19:21:51          PAGE  6


LOC  OBJECT CODE     LINE SOURCE TEXT
  VALUE

00012C E37F F35E 02B1 00241         DB      0x7f, 0xe3, 0x5e, 0xf3, 0xb1, 0x02, 0x90, 0x12, 0xf3, 0x22, 0xd2, 0x32
       1290 22F3 32D2 
000138 4235 5214 6277 00242         DB      0x35, 0x42, 0x14, 0x52, 0x77, 0x62, 0x56, 0x72, 0xea, 0xb5, 0xcb, 0xa5
       7256 B5EA A5CB 
000144 95A8 8589 F56E 00243         DB      0xa8, 0x95, 0x89, 0x85, 0x6e, 0xf5, 0x4f, 0xe5, 0x2c, 0xd5, 0x0d, 0xc5
       E54F D52C C50D 
000150 34E2 24C3 14A0 00244         DB      0xe2, 0x34, 0xc3, 0x24, 0xa0, 0x14, 0x81, 0x04, 0x66, 0x74, 0x47, 0x64
       0481 7466 6447 
00015C 5424 4405 A7DB 00245         DB      0x24, 0x54, 0x05, 0x44, 0xdb, 0xa7, 0xfa, 0xb7, 0x99, 0x87, 0xb8, 0x97
       B7FA 8799 97B8 
000168 E75F F77E C71D 00246         DB      0x5f, 0xe7, 0x7e, 0xf7, 0x1d, 0xc7, 0x3c, 0xd7, 0xd3, 0x26, 0xf2, 0x36
       D73C 26D3 36F2 
000174 0691 16B0 6657 00247         DB      0x91, 0x06, 0xb0, 0x16, 0x57, 0x66, 0x76, 0x76, 0x15, 0x46, 0x34, 0x56
       7676 4615 5634 
000180 D94C C96D F90E 00248         DB      0x4c, 0xd9, 0x6d, 0xc9, 0x0e, 0xf9, 0x2f, 0xe9, 0xc8, 0x99, 0xe9, 0x89
       E92F 99C8 89E9 
00018C B98A A9AB 5844 00249         DB      0x8a, 0xb9, 0xab, 0xa9, 0x44, 0x58, 0x65, 0x48, 0x06, 0x78, 0x27, 0x68
       4865 7806 6827 
000198 18C0 08E1 3882 00250         DB      0xc0, 0x18, 0xe1, 0x08, 0x82, 0x38, 0xa3, 0x28, 0x7d, 0xcb, 0x5c, 0xdb
       28A3 CB7D DB5C 
0001A4 EB3F FB1E 8BF9 00251         DB      0x3f, 0xeb, 0x1e, 0xfb, 0xf9, 0x8b, 0xd8, 0x9b, 0xbb, 0xab, 0x9a, 0xbb
       9BD8 ABBB BB9A 
0001B0 4A75 5A54 6A37 00252         DB      0x75, 0x4a, 0x54, 0x5a, 0x37, 0x6a, 0x16, 0x7a, 0xf1, 0x0a, 0xd0, 0x1a
       7A16 0AF1 1AD0 
0001BC 2AB3 3A92 FD2E 00253         DB      0xb3, 0x2a, 0x92, 0x3a, 0x2e, 0xfd, 0x0f, 0xed, 0x6c, 0xdd, 0x4d, 0xcd
       ED0F DD6C CD4D 
0001C8 BDAA AD8B 9DE8 00254         DB      0xaa, 0xbd, 0x8b, 0xad, 0xe8, 0x9d, 0xc9, 0x8d, 0x26, 0x7c, 0x07, 0x6c
       8DC9 7C26 6C07 
0001D4 5C64 4C45 3CA2 00255         DB      0x64, 0x5c, 0x45, 0x4c, 0xa2, 0x3c, 0x83, 0x2c, 0xe0, 0x1c, 0xc1, 0x0c
       2C83 1CE0 0CC1 
0001E0 EF1F FF3E CF5D 00256         DB      0x1f, 0xef, 0x3e, 0xff, 0x5d, 0xcf, 0x7c, 0xdf, 0x9b, 0xaf, 0xba, 0xbf
       DF7C AF9B BFBA 
0001EC 8FD9 9FF8 6E17 00257         DB      0xd9, 0x8f, 0xf8, 0x9f, 0x17, 0x6e, 0x36, 0x7e, 0x55, 0x4e, 0x74, 0x5e
       7E36 4E55 5E74 
0001F8 2E93 3EB2 0ED1 00258         DB      0x93, 0x2e, 0xb2, 0x3e, 0xd1, 0x0e, 0xf0, 0x1e
       1EF0           
                      00259 
                      00260 
                      00261 ; Statistics:
                      00262 ; code size:      418 (0x01a2) bytes ( 0.32%)
                      00263 ;                 209 (0x00d1) words
                      00264 ; udata size:       0 (0x0000) bytes ( 0.00%)
                      00265 ; access size:     13 (0x000d) bytes
                      00266 
                      00267 
                      00268         end
gpasm-0.14.1 (Aug 18 2017)   crc16.asm          8-18-2017  19:21:51          PAGE  7


SYMBOL TABLE
  LABEL                             VALUE

FSR0L                             00000FE9
FSR1L                             00000FE1
FSR2L                             00000FD9
PLUSW2                            00000FDB
POSTDEC1                          00000FE5
PREINC1                           00000FE4
PRODL                             00000FF3
STATUS                            00000FD8
TABLAT                            00000FF5
TBLPTRH                           00000FF7
TBLPTRL                           00000FF6
TBLPTRU                           00000FF8
WREG                              00000FE8
_00105_DS_                        00000072
_00107_DS_                        0000010A
_00115_DS_                        000000B2
__18F452                          00000001
__gptrget1                        00000000
__mulint                          00000000
_crc16                            00000000
_crc_table                        00000000
r0x00                             00000000
r0x01                             00000001
r0x02                             00000002
r0x03                             00000003
r0x04                             00000004
r0x05                             00000005
r0x06                             00000006
r0x07                             00000007
r0x08                             00000008
r0x09                             00000009
r0x0a                             0000000A
r0x0b                             0000000B
r0x0c                             0000000C

Errors   :     0
Warnings :     0 reported,     0 suppressed
Messages :     0 reported,     0 suppressed

