gpasm-0.14.1 (Aug 18 2017)   memcpypgm2ram.asm  8-18-2017  19:22:07          PAGE  1


LOC  OBJECT CODE     LINE SOURCE TEXT
  VALUE

                      00001 ;--------------------------------------------------------
                      00002 ; File Created by SDCC : free open source ANSI-C Compiler
                      00003 ; Version 3.2.0 #8004 (Aug 18 2017) (MINGW32)
                      00004 ; This file was generated Fri Aug 18 19:22:07 2017
                      00005 ;--------------------------------------------------------
                      00006 ; PIC16 port for the Microchip 16-bit core micros
                      00007 ;--------------------------------------------------------
                      00008         list    p=18f452
                      00009 
                      00010         radix dec
                      00011 
                      00012 ;--------------------------------------------------------
                      00013 ; public variables in this module
                      00014 ;--------------------------------------------------------
                      00015         global  _memcpypgm2ram
                      00016 
                      00017 ;--------------------------------------------------------
                      00018 ;       Equates to used internal registers
                      00019 ;--------------------------------------------------------
  00000FD8            00020 STATUS  equ     0xfd8
  00000FE8            00021 WREG    equ     0xfe8
  00000FF6            00022 TBLPTRL equ     0xff6
  00000FF7            00023 TBLPTRH equ     0xff7
  00000FF8            00024 TBLPTRU equ     0xff8
  00000FF5            00025 TABLAT  equ     0xff5
  00000FE9            00026 FSR0L   equ     0xfe9
  00000FEA            00027 FSR0H   equ     0xfea
  00000FE1            00028 FSR1L   equ     0xfe1
  00000FD9            00029 FSR2L   equ     0xfd9
  00000FEF            00030 INDF0   equ     0xfef
  00000FE5            00031 POSTDEC1        equ     0xfe5
  00000FE4            00032 PREINC1 equ     0xfe4
  00000FDB            00033 PLUSW2  equ     0xfdb
  00000FF3            00034 PRODL   equ     0xff3
                      00035 
                      00036 
                      00037 ; Internal registers
                      00038 .registers      udata_ovr       0x0000
000000                00039 r0x00   res     1
000001                00040 r0x01   res     1
000002                00041 r0x02   res     1
000003                00042 r0x03   res     1
000004                00043 r0x04   res     1
000005                00044 r0x05   res     1
000006                00045 r0x06   res     1
000007                00046 r0x07   res     1
000008                00047 r0x08   res     1
000009                00048 r0x09   res     1
00000A                00049 r0x0a   res     1
                      00050 
                      00051 ;--------------------------------------------------------
                      00052 ; global & static initialisations
                      00053 ;--------------------------------------------------------
gpasm-0.14.1 (Aug 18 2017)   memcpypgm2ram.asm  8-18-2017  19:22:07          PAGE  2


LOC  OBJECT CODE     LINE SOURCE TEXT
  VALUE

                      00054 ; I code from now on!
                      00055 ; ; Starting pCode block
                      00056 ; ;ic:1:  _entry($5) :
                      00057 ; ;ic:2:        proc _memcpypgm2ram [k1 lr0:0 so:0]{ ia0 a2p0 re0 rm0 nos0 ru0 dp0}{void near* function ( void near* fixed, const-void code* fixed, unsigned-int fixed) data}
                      00058 S_memcpypgm2ram__memcpypgm2ram  code
000000                00059 _memcpypgm2ram:
                      00060 ;       .line   32; string/memcpypgm2ram.c      memcpypgm2ram (__data void *dst, __code void *src, size_t acount)
000000 CFD9 FFE5      00061         MOVFF   FSR2L, POSTDEC1
000004 CFE1 FFD9      00062         MOVFF   FSR1L, FSR2L
000008 C000 FFE5      00063         MOVFF   r0x00, POSTDEC1
00000C C000 FFE5      00064         MOVFF   r0x01, POSTDEC1
000010 C000 FFE5      00065         MOVFF   r0x02, POSTDEC1
000014 C000 FFE5      00066         MOVFF   r0x03, POSTDEC1
000018 C000 FFE5      00067         MOVFF   r0x04, POSTDEC1
00001C C000 FFE5      00068         MOVFF   r0x05, POSTDEC1
000020 C000 FFE5      00069         MOVFF   r0x06, POSTDEC1
000024 C000 FFE5      00070         MOVFF   r0x07, POSTDEC1
000028 C000 FFE5      00071         MOVFF   r0x08, POSTDEC1
00002C C000 FFE5      00072         MOVFF   r0x09, POSTDEC1
000030 C000 FFE5      00073         MOVFF   r0x0a, POSTDEC1
                      00074 ; ;ic:3: iTemp0 [k2 lr3:19 so:0]{ ia0 a2p0 re1 rm0 nos0 ru0 dp0}{void near* fixed}{ sir@ _memcpypgm2ram_dst_1_28}[r0x00 r0x01 ] = recv _memcpypgm2ram [k1 lr0:0 so:0]{ ia0 a2p0 re0 rm0 nos0 ru0 dp0}{void near* function ( void near* fixed, const-void code* fixed, unsigned-int fixed) data}
000034 0E02           00075         MOVLW   0x02
000036 CFDB F000      00076         MOVFF   PLUSW2, r0x00
00003A 0E03           00077         MOVLW   0x03
00003C CFDB F000      00078         MOVFF   PLUSW2, r0x01
                      00079 ; ;ic:4: iTemp1 [k4 lr4:7 so:0]{ ia0 a2p0 re1 rm0 nos0 ru0 dp0}{const-void code* fixed}{ sir@ _memcpypgm2ram_src_1_28}[r0x02 r0x03 r0x04 ] = recv _memcpypgm2ram [k1 lr0:0 so:0]{ ia0 a2p0 re0 rm0 nos0 ru0 dp0}{void near* function ( void near* fixed, const-void code* fixed, unsigned-int fixed) data}
000040 0E04           00080         MOVLW   0x04
000042 CFDB F000      00081         MOVFF   PLUSW2, r0x02
000046 0E05           00082         MOVLW   0x05
000048 CFDB F000      00083         MOVFF   PLUSW2, r0x03
00004C 0E06           00084         MOVLW   0x06
00004E CFDB F000      00085         MOVFF   PLUSW2, r0x04
                      00086 ; ;ic:5: iTemp8 [k15 lr5:17 so:0]{ ia0 a2p0 re0 rm0 nos0 ru0 dp0}{unsigned-int fixed}[r0x05 r0x06 ] = recv _memcpypgm2ram [k1 lr0:0 so:0]{ ia0 a2p0 re0 rm0 nos0 ru0 dp0}{void near* function ( void near* fixed, const-void code* fixed, unsigned-int fixed) data}
000052 0E07           00087         MOVLW   0x07
000054 CFDB F000      00088         MOVFF   PLUSW2, r0x05
000058 0E08           00089         MOVLW   0x08
00005A CFDB F000      00090         MOVFF   PLUSW2, r0x06
                      00091 ; ;ic:6:        iTemp10 [k17 lr6:17 so:0]{ ia0 a2p0 re0 rm0 nos0 ru0 dp0}{char near* fixed}[r0x07 r0x08 ] = (char near* fixed)iTemp0 [k2 lr3:19 so:0]{ ia0 a2p0 re1 rm0 nos0 ru0 dp0}{void near* fixed}{ sir@ _memcpypgm2ram_dst_1_28}[r0x00 r0x01 ]
                      00092 ;       .line   34; string/memcpypgm2ram.c      char __data *d = dst;
00005E 5000           00093         MOVF    r0x00, W
000060 6E00           00094         MOVWF   r0x07
000062 5000           00095         MOVF    r0x01, W
                      00096 ;       .line   35; string/memcpypgm2ram.c      char __code *s = src;
000064 6E00           00097         MOVWF   r0x08
                      00098 ; ;ic:7:        iTemp12 [k19 lr7:17 so:0]{ ia0 a2p0 re0 rm0 nos0 ru0 dp0}{const-char code* fixed}[r0x02 r0x03 r0x04 ] = (const-char code* fixed)iTemp1 [k4 lr4:7 so:0]{ ia0 a2p0 re1 rm0 nos0 ru0 dp0}{const-void code* fixed}{ sir@ _memcpypgm2ram_src_1_28}[r0x02 r0x03 r0x04 ]
                      00099 ; #     MOVF    r0x04, W
                      00100 ; #     MOVWF   r0x04
                      00101 ; #     MOVF    r0x04, W
                      00102 ; #     MOVF    r0x03, W
                      00103 ; #     MOVF    r0x03, W
                      00104 ; #     MOVWF   r0x03
                      00105 ; #     MOVF    r0x03, W
                      00106 ; #     MOVF    r0x02, W
gpasm-0.14.1 (Aug 18 2017)   memcpypgm2ram.asm  8-18-2017  19:22:07          PAGE  3


LOC  OBJECT CODE     LINE SOURCE TEXT
  VALUE

                      00107 ; #     MOVF    r0x02, W
                      00108 ; #     MOVWF   r0x02
                      00109 ; #;;ic:9:  _whilecontinue_0($1) :
                      00110 ; #;;ic:10:     iTemp7 [k14 lr10:12 so:0]{ ia0 a2p0 re0 rm0 nos1 ru0 dp0}{unsigned-int fixed}[r0x09 r0x0a ] := iTemp8 [k15 lr5:17 so:0]{ ia0 a2p0 re0 rm0 nos0 ru0 dp0}{unsigned-int fixed}[r0x05 r0x06 ]
000066                00111 _00105_DS_:
                      00112 ;       .line   40; string/memcpypgm2ram.c      while (acount--)
000066 C000 F000      00113         MOVFF   r0x05, r0x09
00006A C000 F000      00114         MOVFF   r0x06, r0x0a
                      00115 ; ;ic:11:       iTemp8 [k15 lr5:17 so:0]{ ia0 a2p0 re0 rm0 nos0 ru0 dp0}{unsigned-int fixed}[r0x05 r0x06 ] = iTemp8 [k15 lr5:17 so:0]{ ia0 a2p0 re0 rm0 nos0 ru0 dp0}{unsigned-int fixed}[r0x05 r0x06 ] - 0x1 {const-unsigned-char literal}
00006E 0EFF           00116         MOVLW   0xff
000070 2600           00117         ADDWF   r0x05, F
000072 2200           00118         ADDWFC  r0x06, F
                      00119 ; ;ic:12:       if iTemp7 [k14 lr10:12 so:0]{ ia0 a2p0 re0 rm0 nos1 ru0 dp0}{unsigned-int fixed}[r0x09 r0x0a ] == 0 goto _whilebreak_0($3)
000074 5000           00120         MOVF    r0x09, W
000076 1000           00121         IORWF   r0x0a, W
000078 E000           00122         BZ      _00107_DS_
                      00123 ; ;ic:13:       iTemp13 [k20 lr13:15 so:0]{ ia0 a2p0 re0 rm0 nos0 ru0 dp0}{const-char register}[r0x09 ] = @[iTemp12 [k19 lr7:17 so:0]{ ia1 a2p0 re0 rm0 nos0 ru0 dp0}{const-char code* fixed}[r0x02 r0x03 r0x04 ] + 0x0 {const-unsigned-char literal}]
                      00124 ;       .line   41; string/memcpypgm2ram.c      *d++ = *s++;
00007A C000 FFF6      00125         MOVFF   r0x02, TBLPTRL
00007E C000 FFF7      00126         MOVFF   r0x03, TBLPTRH
000082 C000 FFF8      00127         MOVFF   r0x04, TBLPTRU
000086 0009           00128         TBLRD*+ 
000088 CFF5 F000      00129         MOVFF   TABLAT, r0x09
                      00130 ; ;ic:14:       iTemp12 [k19 lr7:17 so:0]{ ia0 a2p0 re0 rm0 nos0 ru0 dp0}{const-char code* fixed}[r0x02 r0x03 r0x04 ] = iTemp12 [k19 lr7:17 so:0]{ ia0 a2p0 re0 rm0 nos0 ru0 dp0}{const-char code* fixed}[r0x02 r0x03 r0x04 ] + 0x1 {const-unsigned-char literal}
00008C 2A00           00131         INCF    r0x02, F
00008E E300           00132         BNC     _00115_DS_
000090 4A00           00133         INFSNZ  r0x03, F
000092 2A00           00134         INCF    r0x04, F
                      00135 ; ;ic:15:       *(iTemp10 [k17 lr6:17 so:0]{ ia1 a2p0 re0 rm0 nos0 ru0 dp0}{char near* fixed}[r0x07 r0x08 ]) := iTemp13 [k20 lr13:15 so:0]{ ia0 a2p0 re0 rm0 nos0 ru0 dp0}{const-char register}[r0x09 ]
000094                00136 _00115_DS_:
000094 C000 FFE9      00137         MOVFF   r0x07, FSR0L
000098 C000 FFEA      00138         MOVFF   r0x08, FSR0H
00009C C000 FFEF      00139         MOVFF   r0x09, INDF0
                      00140 ; ;ic:16:       iTemp10 [k17 lr6:17 so:0]{ ia0 a2p0 re0 rm0 nos0 ru0 dp0}{char near* fixed}[r0x07 r0x08 ] = iTemp10 [k17 lr6:17 so:0]{ ia0 a2p0 re0 rm0 nos0 ru0 dp0}{char near* fixed}[r0x07 r0x08 ] + 0x1 {const-unsigned-char literal}
0000A0 4A00           00141         INFSNZ  r0x07, F
0000A2 2A00           00142         INCF    r0x08, F
                      00143 ; ;ic:17:        goto _whilecontinue_0($1)
0000A4 D000           00144         BRA     _00105_DS_
                      00145 ; ;ic:18:  _whilebreak_0($3) :
                      00146 ; ;ic:19:       ret iTemp0 [k2 lr3:19 so:0]{ ia0 a2p0 re1 rm0 nos0 ru0 dp0}{void near* fixed}{ sir@ _memcpypgm2ram_dst_1_28}[r0x00 r0x01 ]
0000A6                00147 _00107_DS_:
                      00148 ;       .line   43; string/memcpypgm2ram.c      return dst;
0000A6 C000 FFF3      00149         MOVFF   r0x01, PRODL
0000AA 5000           00150         MOVF    r0x00, W
                      00151 ; ;ic:20:  _return($4) :
                      00152 ; ;ic:21:       eproc _memcpypgm2ram [k1 lr0:0 so:0]{ ia0 a2p0 re0 rm0 nos0 ru0 dp0}{void near* function ( void near* fixed, const-void code* fixed, unsigned-int fixed) data}
0000AC CFE4 F000      00153         MOVFF   PREINC1, r0x0a
0000B0 CFE4 F000      00154         MOVFF   PREINC1, r0x09
0000B4 CFE4 F000      00155         MOVFF   PREINC1, r0x08
0000B8 CFE4 F000      00156         MOVFF   PREINC1, r0x07
0000BC CFE4 F000      00157         MOVFF   PREINC1, r0x06
0000C0 CFE4 F000      00158         MOVFF   PREINC1, r0x05
0000C4 CFE4 F000      00159         MOVFF   PREINC1, r0x04
gpasm-0.14.1 (Aug 18 2017)   memcpypgm2ram.asm  8-18-2017  19:22:07          PAGE  4


LOC  OBJECT CODE     LINE SOURCE TEXT
  VALUE

0000C8 CFE4 F000      00160         MOVFF   PREINC1, r0x03
0000CC CFE4 F000      00161         MOVFF   PREINC1, r0x02
0000D0 CFE4 F000      00162         MOVFF   PREINC1, r0x01
0000D4 CFE4 F000      00163         MOVFF   PREINC1, r0x00
0000D8 CFE4 FFD9      00164         MOVFF   PREINC1, FSR2L
0000DC 0012           00165         RETURN  
                      00166 
                      00167 
                      00168 
                      00169 ; Statistics:
                      00170 ; code size:      222 (0x00de) bytes ( 0.17%)
                      00171 ;                 111 (0x006f) words
                      00172 ; udata size:       0 (0x0000) bytes ( 0.00%)
                      00173 ; access size:     11 (0x000b) bytes
                      00174 
                      00175 
                      00176         end
gpasm-0.14.1 (Aug 18 2017)   memcpypgm2ram.asm  8-18-2017  19:22:07          PAGE  5


SYMBOL TABLE
  LABEL                             VALUE

FSR0H                             00000FEA
FSR0L                             00000FE9
FSR1L                             00000FE1
FSR2L                             00000FD9
INDF0                             00000FEF
PLUSW2                            00000FDB
POSTDEC1                          00000FE5
PREINC1                           00000FE4
PRODL                             00000FF3
STATUS                            00000FD8
TABLAT                            00000FF5
TBLPTRH                           00000FF7
TBLPTRL                           00000FF6
TBLPTRU                           00000FF8
WREG                              00000FE8
_00105_DS_                        00000066
_00107_DS_                        000000A6
_00115_DS_                        00000094
__18F452                          00000001
_memcpypgm2ram                    00000000
r0x00                             00000000
r0x01                             00000001
r0x02                             00000002
r0x03                             00000003
r0x04                             00000004
r0x05                             00000005
r0x06                             00000006
r0x07                             00000007
r0x08                             00000008
r0x09                             00000009
r0x0a                             0000000A

Errors   :     0
Warnings :     0 reported,     0 suppressed
Messages :     0 reported,     0 suppressed

