gpasm-0.14.1 (Aug 18 2017)   realloc.asm        8-18-2017  19:22:00          PAGE  1


LOC  OBJECT CODE     LINE SOURCE TEXT
  VALUE

                      00001 ;--------------------------------------------------------
                      00002 ; File Created by SDCC : free open source ANSI-C Compiler
                      00003 ; Version 3.2.0 #8004 (Aug 18 2017) (MINGW32)
                      00004 ; This file was generated Fri Aug 18 19:22:00 2017
                      00005 ;--------------------------------------------------------
                      00006 ; PIC16 port for the Microchip 16-bit core micros
                      00007 ;--------------------------------------------------------
                      00008         list    p=18f452
                      00009 
                      00010         radix dec
                      00011 
                      00012 ;--------------------------------------------------------
                      00013 ; public variables in this module
                      00014 ;--------------------------------------------------------
                      00015         global  _realloc
                      00016 
                      00017 ;--------------------------------------------------------
                      00018 ; extern variables in this module
                      00019 ;--------------------------------------------------------
                      00020         extern  _heap
                      00021         extern  __mergeHeapBlock
                      00022         extern  _malloc
                      00023         extern  _free
                      00024 
                      00025 ;--------------------------------------------------------
                      00026 ;       Equates to used internal registers
                      00027 ;--------------------------------------------------------
  00000FD8            00028 STATUS  equ     0xfd8
  00000FE8            00029 WREG    equ     0xfe8
  00000FE9            00030 FSR0L   equ     0xfe9
  00000FEA            00031 FSR0H   equ     0xfea
  00000FE1            00032 FSR1L   equ     0xfe1
  00000FD9            00033 FSR2L   equ     0xfd9
  00000FEF            00034 INDF0   equ     0xfef
  00000FE6            00035 POSTINC1        equ     0xfe6
  00000FE5            00036 POSTDEC1        equ     0xfe5
  00000FE4            00037 PREINC1 equ     0xfe4
  00000FDB            00038 PLUSW2  equ     0xfdb
  00000FF3            00039 PRODL   equ     0xff3
  00000FF4            00040 PRODH   equ     0xff4
                      00041 
                      00042 
                      00043 ; Internal registers
                      00044 .registers      udata_ovr       0x0000
000000                00045 r0x00   res     1
000001                00046 r0x01   res     1
000002                00047 r0x02   res     1
000003                00048 r0x03   res     1
000004                00049 r0x04   res     1
000005                00050 r0x05   res     1
000006                00051 r0x06   res     1
000007                00052 r0x07   res     1
000008                00053 r0x08   res     1
gpasm-0.14.1 (Aug 18 2017)   realloc.asm        8-18-2017  19:22:00          PAGE  2


LOC  OBJECT CODE     LINE SOURCE TEXT
  VALUE

000009                00054 r0x09   res     1
                      00055 
                      00056 ;--------------------------------------------------------
                      00057 ; global & static initialisations
                      00058 ;--------------------------------------------------------
                      00059 ; I code from now on!
                      00060 ; ; Starting pCode block
                      00061 ; ;ic:1:  _entry($14) :
                      00062 ; ;ic:2:        proc _realloc [k1 lr0:0 so:0]{ ia0 a2p0 re0 rm0 nos0 ru0 dp0}{unsigned-char near* function ( unsigned-char near* fixed, unsigned-char fixed) data}
                      00063 S_realloc__realloc      code
000000                00064 _realloc:
                      00065 ;       .line   33; stdlib/realloc.c    unsigned char _MALLOC_SPEC *realloc(unsigned char _MALLOC_SPEC *mblock, unsigned char len)
000000 CFD9 FFE5      00066         MOVFF   FSR2L, POSTDEC1
000004 CFE1 FFD9      00067         MOVFF   FSR1L, FSR2L
000008 C000 FFE5      00068         MOVFF   r0x00, POSTDEC1
00000C C000 FFE5      00069         MOVFF   r0x01, POSTDEC1
000010 C000 FFE5      00070         MOVFF   r0x02, POSTDEC1
000014 C000 FFE5      00071         MOVFF   r0x03, POSTDEC1
000018 C000 FFE5      00072         MOVFF   r0x04, POSTDEC1
00001C C000 FFE5      00073         MOVFF   r0x05, POSTDEC1
000020 C000 FFE5      00074         MOVFF   r0x06, POSTDEC1
000024 C000 FFE5      00075         MOVFF   r0x07, POSTDEC1
000028 C000 FFE5      00076         MOVFF   r0x08, POSTDEC1
00002C C000 FFE5      00077         MOVFF   r0x09, POSTDEC1
                      00078 ; ;ic:3: iTemp0 [k2 lr3:53 so:0]{ ia0 a2p0 re1 rm0 nos0 ru0 dp0}{unsigned-char near* fixed}{ sir@ _realloc_mblock_1_9}[r0x00 r0x01 ] = recv _realloc [k1 lr0:0 so:0]{ ia0 a2p0 re0 rm0 nos0 ru0 dp0}{unsigned-char near* function ( unsigned-char near* fixed, unsigned-char fixed) data}
000030 0E02           00079         MOVLW   0x02
000032 CFDB F000      00080         MOVFF   PLUSW2, r0x00
000036 0E03           00081         MOVLW   0x03
000038 CFDB F000      00082         MOVFF   PLUSW2, r0x01
                      00083 ; ;ic:4: iTemp1 [k4 lr4:50 so:0]{ ia0 a2p0 re1 rm0 nos0 ru0 dp0}{unsigned-char fixed}{ sir@ _realloc_len_1_9}[r0x02 ] = recv _realloc [k1 lr0:0 so:0]{ ia0 a2p0 re0 rm0 nos0 ru0 dp0}{unsigned-char near* function ( unsigned-char near* fixed, unsigned-char fixed) data}
00003C 0E04           00084         MOVLW   0x04
00003E CFDB F000      00085         MOVFF   PLUSW2, r0x02
                      00086 ; ;ic:5:        iTemp2 [k6 lr5:6 so:0]{ ia0 a2p0 re0 rm0 nos0 ru0 dp0}{char fixed} = iTemp1 [k4 lr4:50 so:0]{ ia0 a2p0 re1 rm0 nos0 ru0 dp0}{unsigned-char fixed}{ sir@ _realloc_len_1_9}[r0x02 ] < 0x7f {const-unsigned-char literal}
                      00087 ;       .line   39; stdlib/realloc.c    if(len >= MAX_BLOCK_SIZE)
000042 0E7F           00088         MOVLW   0x7f
000044 5C00           00089         SUBWF   r0x02, W
000046 E300           00090         BNC     _00106_DS_
                      00091 ; ;ic:6:        if iTemp2 [k6 lr5:6 so:0]{ ia0 a2p0 re0 rm0 nos0 ru0 dp0}{char fixed} != 0 goto _iffalse_0($2)
                      00092 ; ;ic:7:        ret 0x0 {unsigned-char near* literal}
                      00093 ;       .line   40; stdlib/realloc.c    return ((unsigned char _MALLOC_SPEC *)0);
000048 6AF3           00094         CLRF    PRODL
00004A 6AE8           00095         CLRF    WREG
00004C D000           00096         BRA     _00117_DS_
                      00097 ; ;ic:8:  _iffalse_0($2) :
                      00098 ; ;ic:9:        if iTemp0 [k2 lr3:53 so:0]{ ia0 a2p0 re1 rm0 nos0 ru0 dp0}{unsigned-char near* fixed}{ sir@ _realloc_mblock_1_9}[r0x00 r0x01 ] != 0 goto _iffalse_1($4)
00004E                00099 _00106_DS_:
                      00100 ;       .line   43; stdlib/realloc.c    if(!mblock)
00004E 5000           00101         MOVF    r0x00, W
000050 1000           00102         IORWF   r0x01, W
000052 E100           00103         BNZ     _00108_DS_
                      00104 ; ;ic:10:       send iTemp1 [k4 lr4:50 so:0]{ ia0 a2p0 re1 rm0 nos0 ru0 dp0}{unsigned-char fixed}{ sir@ _realloc_len_1_9}[r0x02 ]{argreg = 1}
                      00105 ; ;ic:11:       iTemp3 [k9 lr11:12 so:0]{ ia0 a2p0 re0 rm0 nos0 ru0 dp0}{unsigned-char near* fixed}[r0x03 r0x04 ] = call _malloc [k7 lr0:0 so:0]{ ia0 a2p0 re0 rm0 nos0 ru0 dp0}{unsigned-char near* function ( unsigned-char fixed) fixed}
                      00106 ;       .line   44; stdlib/realloc.c    return (malloc(len));
gpasm-0.14.1 (Aug 18 2017)   realloc.asm        8-18-2017  19:22:00          PAGE  3


LOC  OBJECT CODE     LINE SOURCE TEXT
  VALUE

000054 5000           00107         MOVF    r0x02, W
000056 6EE5           00108         MOVWF   POSTDEC1
000058 EC00 F000      00109         CALL    _malloc
00005C CFF3 F000      00110         MOVFF   PRODL, r0x04
000060 52E6           00111         MOVF    POSTINC1, F
                      00112 ; ;ic:12:       ret iTemp3 [k9 lr11:12 so:0]{ ia0 a2p0 re0 rm0 nos0 ru0 dp0}{unsigned-char near* fixed}[r0x03 r0x04 ]
000062 C000 FFF3      00113         MOVFF   r0x04, PRODL
000066 D000           00114         BRA     _00117_DS_
                      00115 ; ;ic:13:  _iffalse_1($4) :
                      00116 ; ;ic:14:       if iTemp1 [k4 lr4:50 so:0]{ ia0 a2p0 re1 rm0 nos0 ru0 dp0}{unsigned-char fixed}{ sir@ _realloc_len_1_9}[r0x02 ] != 0 goto _iffalse_2($6)
000068                00117 _00108_DS_:
                      00118 ;       .line   47; stdlib/realloc.c    if(len == 0) {
000068 5000           00119         MOVF    r0x02, W
00006A E100           00120         BNZ     _00110_DS_
                      00121 ; ;ic:15:       send iTemp0 [k2 lr3:53 so:0]{ ia0 a2p0 re1 rm0 nos0 ru0 dp0}{unsigned-char near* fixed}{ sir@ _realloc_mblock_1_9}[r0x00 r0x01 ]{argreg = 1}
                      00122 ; ;ic:16:       iTemp4 [k12 lr16:16 so:0]{ ia0 a2p0 re0 rm0 nos0 ru0 dp0}{void fixed} = call _free [k10 lr0:0 so:0]{ ia0 a2p0 re0 rm0 nos0 ru0 dp0}{void function ( unsigned-char near* fixed) fixed}
                      00123 ;       .line   48; stdlib/realloc.c    free(mblock);
00006C 5000           00124         MOVF    r0x01, W
00006E 6EE5           00125         MOVWF   POSTDEC1
000070 5000           00126         MOVF    r0x00, W
000072 6EE5           00127         MOVWF   POSTDEC1
000074 EC00 F000      00128         CALL    _free
000078 52E6           00129         MOVF    POSTINC1, F
00007A 52E6           00130         MOVF    POSTINC1, F
                      00131 ; ;ic:17:       ret 0x0 {unsigned-char near* literal}
                      00132 ;       .line   49; stdlib/realloc.c    return ((unsigned char _MALLOC_SPEC *)0);
00007C 6AF3           00133         CLRF    PRODL
00007E 6AE8           00134         CLRF    WREG
000080 D000           00135         BRA     _00117_DS_
                      00136 ; ;ic:18:  _iffalse_2($6) :
                      00137 ; ;ic:19:       iTemp6 [k15 lr19:20 so:0]{ ia0 a2p0 re0 rm0 nos0 ru0 dp0}{unsigned-int fixed}[r0x03 r0x04 ] = (unsigned-int fixed)iTemp0 [k2 lr3:53 so:0]{ ia0 a2p0 re1 rm0 nos0 ru0 dp0}{unsigned-char near* fixed}{ sir@ _realloc_mblock_1_9}[r0x00 r0x01 ]
000082                00138 _00110_DS_:
                      00139 ;       .line   52; stdlib/realloc.c    pHeap = (_malloc_rec _MALLOC_SPEC *)((unsigned int)mblock - 1);
000082 5000           00140         MOVF    r0x00, W
000084 6E00           00141         MOVWF   r0x03
000086 5000           00142         MOVF    r0x01, W
000088 6E00           00143         MOVWF   r0x04
                      00144 ; ;ic:20:       iTemp7 [k16 lr20:21 so:0]{ ia0 a2p0 re0 rm0 nos0 ru0 dp0}{unsigned-int register}[r0x03 r0x04 ] = iTemp6 [k15 lr19:20 so:0]{ ia0 a2p0 re0 rm0 nos0 ru0 dp0}{unsigned-int fixed}[r0x03 r0x04 ] - 0x1 {unsigned-int literal}
00008A 0EFF           00145         MOVLW   0xff
00008C 2600           00146         ADDWF   r0x03, F
00008E 2200           00147         ADDWFC  r0x04, F
                      00148 ; ;ic:21:       iTemp5 [k13 lr21:42 so:0]{ ia0 a2p0 re1 rm0 nos0 ru0 dp0}{struct __00000000 near* fixed}{ sir@ _realloc_pHeap_1_10}[r0x03 r0x04 ] = (struct __00000000 near* fixed)iTemp7 [k16 lr20:21 so:0]{ ia0 a2p0 re0 rm0 nos0 ru0 dp0}{unsigned-int register}[r0x03 r0x04 ]
                      00149 ; ;ic:22:       iTemp12 [k24 lr22:23 so:0]{ ia0 a2p0 re0 rm0 nos0 ru0 dp0}{volatile-unsigned-bitfield {0,7} near* fixed}[r0x05 r0x06 ] := iTemp5 [k13 lr21:42 so:0]{ ia0 a2p0 re1 rm0 nos0 ru0 dp0}{struct __00000000 near* fixed}{ sir@ _realloc_pHeap_1_10}[r0x03 r0x04 ]
                      00150 ;       .line   53; stdlib/realloc.c    bLen = pHeap->bits.count;
000090 C000 F000      00151         MOVFF   r0x03, r0x05
000094 C000 F000      00152         MOVFF   r0x04, r0x06
                      00153 ; ;ic:23:       iTemp13 [k25 lr23:24 so:0]{ ia0 a2p0 re0 rm0 nos0 ru0 dp0}{volatile-unsigned-bitfield {0,7} fixed}{ sir@ _realloc_bLen_1_10}[r0x05 ] = @[iTemp12 [k24 lr22:23 so:0]{ ia1 a2p0 re0 rm0 nos0 ru0 dp0}{volatile-unsigned-bitfield {0,7} near* fixed}[r0x05 r0x06 ] + 0x0 {const-unsigned-char literal}]
000098 C000 FFE9      00154         MOVFF   r0x05, FSR0L
00009C C000 FFEA      00155         MOVFF   r0x06, FSR0H
0000A0 50EF           00156         MOVF    INDF0, W
0000A2 0B7F           00157         ANDLW   0x7f
                      00158 ; #     MOVWF   r0x05
                      00159 ; #;;ic:24:     iTemp9 [k18 lr24:50 so:0]{ ia0 a2p0 re1 rm0 nos0 ru0 dp0}{unsigned-char fixed}{ sir@ _realloc_bLen_1_10}[r0x05 ] := iTemp13 [k25 lr23:24 so:0]{ ia0 a2p0 re0 rm0 nos0 ru0 dp0}{volatile-unsigned-bitfield {0,7} fixed}{ sir@ _realloc_bLen_1_10}[r0x05 ]
gpasm-0.14.1 (Aug 18 2017)   realloc.asm        8-18-2017  19:22:00          PAGE  4


LOC  OBJECT CODE     LINE SOURCE TEXT
  VALUE

                      00160 ; #;;ic:25:     iTemp14 [k26 lr25:26 so:0]{ ia0 a2p0 re0 rm0 nos0 ru0 dp0}{char fixed} = iTemp9 [k18 lr24:50 so:0]{ ia0 a2p0 re1 rm0 nos0 ru0 dp0}{unsigned-char fixed}{ sir@ _realloc_bLen_1_10}[r0x05 ] > iTemp1 [k4 lr4:50 so:0]{ ia0 a2p0 re1 rm0 nos0 ru0 dp0}{unsigned-char fixed}{ sir@ _realloc_len_1_9}[r0x02 ]
                      00161 ; #     MOVF    r0x05, W
                      00162 ;       .line   56; stdlib/realloc.c    if (bLen <= len) {
0000A4 6E00           00163         MOVWF   r0x05
0000A6 5C00           00164         SUBWF   r0x02, W
0000A8 E300           00165         BNC     _00114_DS_
                      00166 ; ;ic:26:       if iTemp14 [k26 lr25:26 so:0]{ ia0 a2p0 re0 rm0 nos0 ru0 dp0}{char fixed} != 0 goto _iffalse_4($10)
                      00167 ; ;ic:27:       send iTemp5 [k13 lr21:42 so:0]{ ia0 a2p0 re1 rm0 nos0 ru0 dp0}{struct __00000000 near* fixed}{ sir@ _realloc_pHeap_1_10}[r0x03 r0x04 ]{argreg = 1}
                      00168 ; ;ic:28:       send iTemp1 [k4 lr4:50 so:0]{ ia0 a2p0 re1 rm0 nos0 ru0 dp0}{unsigned-char fixed}{ sir@ _realloc_len_1_9}[r0x02 ]{argreg = 2}
                      00169 ; ;ic:29:       iTemp15 [k27 lr29:49 so:0]{ ia0 a2p0 re1 rm0 nos0 ru0 dp0}{struct __00000000 near* fixed}{ sir@ _realloc_temp_1_10}[r0x06 r0x07 ] = call __mergeHeapBlock [k29 lr0:0 so:0]{ ia0 a2p0 re0 rm0 nos0 ru0 dp0}{struct __00000000 near* function ( struct __00000000 near* fixed, unsigned-char fixed) fixed}
                      00170 ;       .line   61; stdlib/realloc.c    temp = _mergeHeapBlock(pHeap, len);
0000AA 5000           00171         MOVF    r0x02, W
0000AC 6EE5           00172         MOVWF   POSTDEC1
0000AE 5000           00173         MOVF    r0x04, W
0000B0 6EE5           00174         MOVWF   POSTDEC1
0000B2 5000           00175         MOVF    r0x03, W
0000B4 6EE5           00176         MOVWF   POSTDEC1
0000B6 EC00 F000      00177         CALL    __mergeHeapBlock
0000BA 6E00           00178         MOVWF   r0x06
0000BC CFF3 F000      00179         MOVFF   PRODL, r0x07
0000C0 0E03           00180         MOVLW   0x03
0000C2 26E1           00181         ADDWF   FSR1L, F
                      00182 ; ;ic:30:       if iTemp15 [k27 lr29:49 so:0]{ ia0 a2p0 re1 rm0 nos0 ru0 dp0}{struct __00000000 near* fixed}{ sir@ _realloc_temp_1_10}[r0x06 r0x07 ] != 0 goto _iffalse_3($8)
                      00183 ;       .line   63; stdlib/realloc.c    if(!temp) {
0000C4 5000           00184         MOVF    r0x06, W
0000C6 1000           00185         IORWF   r0x07, W
0000C8 E100           00186         BNZ     _00112_DS_
                      00187 ; ;ic:31:       ret 0x0 {unsigned-char near* literal}
                      00188 ;       .line   65; stdlib/realloc.c    return ((unsigned char _MALLOC_SPEC *)0);
0000CA 6AF3           00189         CLRF    PRODL
0000CC 6AE8           00190         CLRF    WREG
0000CE D000           00191         BRA     _00117_DS_
                      00192 ; ;ic:32:  _iffalse_3($8) :
                      00193 ; ;ic:33:       iTemp19 [k37 lr33:34 so:0]{ ia0 a2p0 re0 rm0 nos0 ru0 dp0}{volatile-unsigned-bitfield {0,7} near* fixed}[r0x08 r0x09 ] := iTemp5 [k13 lr21:42 so:0]{ ia0 a2p0 re1 rm0 nos0 ru0 dp0}{struct __00000000 near* fixed}{ sir@ _realloc_pHeap_1_10}[r0x03 r0x04 ]
0000D0                00194 _00112_DS_:
                      00195 ;       .line   69; stdlib/realloc.c    bLen = pHeap->bits.count;
0000D0 C000 F000      00196         MOVFF   r0x03, r0x08
0000D4 C000 F000      00197         MOVFF   r0x04, r0x09
                      00198 ; ;ic:34:       iTemp20 [k38 lr34:35 so:0]{ ia0 a2p0 re0 rm0 nos0 ru0 dp0}{volatile-unsigned-bitfield {0,7} fixed}[r0x08 ] = @[iTemp19 [k37 lr33:34 so:0]{ ia1 a2p0 re0 rm0 nos0 ru0 dp0}{volatile-unsigned-bitfield {0,7} near* fixed}[r0x08 r0x09 ] + 0x0 {const-unsigned-char literal}]
0000D8 C000 FFE9      00199         MOVFF   r0x08, FSR0L
0000DC C000 FFEA      00200         MOVFF   r0x09, FSR0H
0000E0 50EF           00201         MOVF    INDF0, W
0000E2 0B7F           00202         ANDLW   0x7f
0000E4 6E00           00203         MOVWF   r0x08
                      00204 ; ;ic:35:       iTemp9 [k18 lr24:50 so:0]{ ia0 a2p0 re1 rm0 nos0 ru0 dp0}{unsigned-char fixed}{ sir@ _realloc_bLen_1_10}[r0x05 ] := iTemp20 [k38 lr34:35 so:0]{ ia0 a2p0 re0 rm0 nos0 ru0 dp0}{volatile-unsigned-bitfield {0,7} fixed}[r0x08 ]
0000E6 C000 F000      00205         MOVFF   r0x08, r0x05
                      00206 ; ;ic:36:  _iffalse_4($10) :
                      00207 ; ;ic:37:       iTemp1 [k4 lr4:50 so:0]{ ia0 a2p0 re1 rm0 nos0 ru0 dp0}{unsigned-char fixed}{ sir@ _realloc_len_1_9}[r0x02 ] = iTemp1 [k4 lr4:50 so:0]{ ia0 a2p0 re1 rm0 nos0 ru0 dp0}{unsigned-char fixed}{ sir@ _realloc_len_1_9}[r0x02 ] + 0x1 {const-unsigned-char literal}
0000EA                00208 _00114_DS_:
                      00209 ;       .line   72; stdlib/realloc.c    len++; /* increase to also count the header */
0000EA 2A00           00210         INCF    r0x02, F
                      00211 ; ;ic:38:       iTemp23 [k41 lr38:39 so:0]{ ia0 a2p0 re0 rm0 nos0 ru0 dp0}{char fixed} = iTemp9 [k18 lr24:50 so:0]{ ia0 a2p0 re1 rm0 nos0 ru0 dp0}{unsigned-char fixed}{ sir@ _realloc_bLen_1_10}[r0x05 ] > iTemp1 [k4 lr4:50 so:0]{ ia0 a2p0 re1 rm0 nos0 ru0 dp0}{unsigned-char fixed}{ sir@ _realloc_len_1_9}[r0x02 ]
                      00212 ;       .line   74; stdlib/realloc.c    if(bLen > len) {
gpasm-0.14.1 (Aug 18 2017)   realloc.asm        8-18-2017  19:22:00          PAGE  5


LOC  OBJECT CODE     LINE SOURCE TEXT
  VALUE

0000EC 5000           00213         MOVF    r0x05, W
0000EE 5C00           00214         SUBWF   r0x02, W
0000F0 E200           00215         BC      _00116_DS_
                      00216 ; ;ic:39:       if iTemp23 [k41 lr38:39 so:0]{ ia0 a2p0 re0 rm0 nos0 ru0 dp0}{char fixed} == 0 goto _iffalse_5($12)
                      00217 ; ;ic:40:       iTemp26 [k46 lr40:41 so:0]{ ia0 a2p0 re0 rm0 nos0 ru0 dp0}{volatile-unsigned-bitfield {0,7} near* fixed}[r0x08 r0x09 ] := iTemp5 [k13 lr21:42 so:0]{ ia0 a2p0 re1 rm0 nos0 ru0 dp0}{struct __00000000 near* fixed}{ sir@ _realloc_pHeap_1_10}[r0x03 r0x04 ]
                      00218 ;       .line   76; stdlib/realloc.c    pHeap->bits.count = len;
0000F2 C000 F000      00219         MOVFF   r0x03, r0x08
0000F6 C000 F000      00220         MOVFF   r0x04, r0x09
                      00221 ; ;ic:41:       *(iTemp26 [k46 lr40:41 so:0]{ ia1 a2p0 re0 rm0 nos0 ru0 dp0}{volatile-unsigned-bitfield {0,7} near* fixed}[r0x08 r0x09 ]) := iTemp1 [k4 lr4:50 so:0]{ ia0 a2p0 re1 rm0 nos0 ru0 dp0}{unsigned-char fixed}{ sir@ _realloc_len_1_9}[r0x02 ]
0000FA 5000           00222         MOVF    r0x02, W
0000FC 0B7F           00223         ANDLW   0x7f
0000FE 6EF4           00224         MOVWF   PRODH
000100 C000 FFE9      00225         MOVFF   r0x08, FSR0L
000104 C000 FFEA      00226         MOVFF   r0x09, FSR0H
000108 50EF           00227         MOVF    INDF0, W
00010A 0B80           00228         ANDLW   0x80
00010C 10F4           00229         IORWF   PRODH, W
00010E 6EEF           00230         MOVWF   INDF0
                      00231 ; ;ic:42:       iTemp27 [k47 lr42:45 so:0]{ ia0 a2p0 re0 rm0 nos0 ru0 dp0}{unsigned-int fixed}[r0x03 r0x04 ] = (unsigned-int fixed)iTemp5 [k13 lr21:42 so:0]{ ia0 a2p0 re1 rm0 nos0 ru0 dp0}{struct __00000000 near* fixed}{ sir@ _realloc_pHeap_1_10}[r0x03 r0x04 ]
                      00232 ; ;ic:43:       iTemp28 [k48 lr43:44 so:0]{ ia0 a2p0 re0 rm0 nos0 ru0 dp0}{int fixed}[r0x08 r0x09 ] = (int fixed)iTemp1 [k4 lr4:50 so:0]{ ia0 a2p0 re1 rm0 nos0 ru0 dp0}{unsigned-char fixed}{ sir@ _realloc_len_1_9}[r0x02 ]
                      00233 ;       .line   77; stdlib/realloc.c    temp = (_malloc_rec _MALLOC_SPEC *)((unsigned int)pHeap + len);
000110 C000 F000      00234         MOVFF   r0x02, r0x08
000114 6A00           00235         CLRF    r0x09
                      00236 ; ;ic:44:       iTemp29 [k49 lr44:45 so:0]{ ia0 a2p0 re0 rm0 nos0 ru0 dp0}{unsigned-int fixed}[r0x08 r0x09 ] = (unsigned-int fixed)iTemp28 [k48 lr43:44 so:0]{ ia0 a2p0 re0 rm0 nos0 ru0 dp0}{int fixed}[r0x08 r0x09 ]
                      00237 ; ;ic:45:       iTemp30 [k50 lr45:46 so:0]{ ia0 a2p0 re0 rm0 nos0 ru0 dp0}{unsigned-int fixed}[r0x03 r0x04 ] = iTemp27 [k47 lr42:45 so:0]{ ia0 a2p0 re0 rm0 nos0 ru0 dp0}{unsigned-int fixed}[r0x03 r0x04 ] + iTemp29 [k49 lr44:45 so:0]{ ia0 a2p0 re0 rm0 nos0 ru0 dp0}{unsigned-int fixed}[r0x08 r0x09 ]
000116 5000           00238         MOVF    r0x08, W
000118 2600           00239         ADDWF   r0x03, F
00011A 5000           00240         MOVF    r0x09, W
00011C 2200           00241         ADDWFC  r0x04, F
                      00242 ; ;ic:46:       iTemp15 [k27 lr29:49 so:0]{ ia0 a2p0 re1 rm0 nos0 ru0 dp0}{struct __00000000 near* fixed}{ sir@ _realloc_temp_1_10}[r0x06 r0x07 ] = (struct __00000000 near* fixed)iTemp30 [k50 lr45:46 so:0]{ ia0 a2p0 re0 rm0 nos0 ru0 dp0}{unsigned-int fixed}[r0x03 r0x04 ]
00011E 5000           00243         MOVF    r0x03, W
000120 6E00           00244         MOVWF   r0x06
000122 5000           00245         MOVF    r0x04, W
000124 6E00           00246         MOVWF   r0x07
                      00247 ; ;ic:47:       iTemp34 [k56 lr47:48 so:0]{ ia0 a2p0 re0 rm0 nos0 ru0 dp0}{volatile-unsigned-bitfield {7,1} near* fixed}[r0x03 r0x04 ] := iTemp15 [k27 lr29:49 so:0]{ ia0 a2p0 re1 rm0 nos0 ru0 dp0}{struct __00000000 near* fixed}{ sir@ _realloc_temp_1_10}[r0x06 r0x07 ]
                      00248 ;       .line   78; stdlib/realloc.c    temp->bits.alloc = 0;
000126 C000 F000      00249         MOVFF   r0x06, r0x03
00012A C000 F000      00250         MOVFF   r0x07, r0x04
                      00251 ; ;ic:48:       *(iTemp34 [k56 lr47:48 so:0]{ ia1 a2p0 re0 rm0 nos0 ru0 dp0}{volatile-unsigned-bitfield {7,1} near* fixed}[r0x03 r0x04 ]) := 0x0 {const-unsigned-char literal}
00012E C000 FFE9      00252         MOVFF   r0x03, FSR0L
000132 C000 FFEA      00253         MOVFF   r0x04, FSR0H
000136 9EEF           00254         BCF     INDF0, 7
                      00255 ; ;ic:49:       iTemp37 [k61 lr49:51 so:0]{ ia0 a2p0 re0 rm0 nos0 ru0 dp0}{volatile-unsigned-bitfield {0,7} near* fixed}[r0x06 r0x07 ] := iTemp15 [k27 lr29:49 so:0]{ ia0 a2p0 re1 rm0 nos0 ru0 dp0}{struct __00000000 near* fixed}{ sir@ _realloc_temp_1_10}[r0x06 r0x07 ]
                      00256 ; ;ic:50:       iTemp38 [k62 lr50:51 so:0]{ ia0 a2p0 re0 rm0 nos0 ru0 dp0}{unsigned-char fixed}[r0x02 ] = iTemp9 [k18 lr24:50 so:0]{ ia0 a2p0 re1 rm0 nos0 ru0 dp0}{unsigned-char fixed}{ sir@ _realloc_bLen_1_10}[r0x05 ] - iTemp1 [k4 lr4:50 so:0]{ ia0 a2p0 re1 rm0 nos0 ru0 dp0}{unsigned-char fixed}{ sir@ _realloc_len_1_9}[r0x02 ]
                      00257 ;       .line   79; stdlib/realloc.c    temp->bits.count = bLen - len;
000138 5000           00258         MOVF    r0x02, W
00013A 5C00           00259         SUBWF   r0x05, W
                      00260 ; #     MOVWF   r0x02
                      00261 ; #;;ic:51:     *(iTemp37 [k61 lr49:51 so:0]{ ia1 a2p0 re0 rm0 nos0 ru0 dp0}{volatile-unsigned-bitfield {0,7} near* fixed}[r0x06 r0x07 ]) := iTemp38 [k62 lr50:51 so:0]{ ia0 a2p0 re0 rm0 nos0 ru0 dp0}{unsigned-char fixed}[r0x02 ]
                      00262 ; #     MOVF    r0x02, W
00013C 0B7F           00263         ANDLW   0x7f
00013E 6EF4           00264         MOVWF   PRODH
000140 C000 FFE9      00265         MOVFF   r0x06, FSR0L
gpasm-0.14.1 (Aug 18 2017)   realloc.asm        8-18-2017  19:22:00          PAGE  6


LOC  OBJECT CODE     LINE SOURCE TEXT
  VALUE

000144 C000 FFEA      00266         MOVFF   r0x07, FSR0H
000148 50EF           00267         MOVF    INDF0, W
00014A 0B80           00268         ANDLW   0x80
00014C 10F4           00269         IORWF   PRODH, W
00014E 6EEF           00270         MOVWF   INDF0
                      00271 ; ;ic:52:  _iffalse_5($12) :
                      00272 ; ;ic:53:       ret iTemp0 [k2 lr3:53 so:0]{ ia0 a2p0 re1 rm0 nos0 ru0 dp0}{unsigned-char near* fixed}{ sir@ _realloc_mblock_1_9}[r0x00 r0x01 ]
000150                00273 _00116_DS_:
                      00274 ;       .line   82; stdlib/realloc.c    return (mblock);
000150 C000 FFF3      00275         MOVFF   r0x01, PRODL
000154 5000           00276         MOVF    r0x00, W
                      00277 ; ;ic:54:  _return($13) :
                      00278 ; ;ic:55:       eproc _realloc [k1 lr0:0 so:0]{ ia0 a2p0 re0 rm0 nos0 ru0 dp0}{unsigned-char near* function ( unsigned-char near* fixed, unsigned-char fixed) data}
000156                00279 _00117_DS_:
000156 CFE4 F000      00280         MOVFF   PREINC1, r0x09
00015A CFE4 F000      00281         MOVFF   PREINC1, r0x08
00015E CFE4 F000      00282         MOVFF   PREINC1, r0x07
000162 CFE4 F000      00283         MOVFF   PREINC1, r0x06
000166 CFE4 F000      00284         MOVFF   PREINC1, r0x05
00016A CFE4 F000      00285         MOVFF   PREINC1, r0x04
00016E CFE4 F000      00286         MOVFF   PREINC1, r0x03
000172 CFE4 F000      00287         MOVFF   PREINC1, r0x02
000176 CFE4 F000      00288         MOVFF   PREINC1, r0x01
00017A CFE4 F000      00289         MOVFF   PREINC1, r0x00
00017E CFE4 FFD9      00290         MOVFF   PREINC1, FSR2L
000182 0012           00291         RETURN  
                      00292 
                      00293 
                      00294 
                      00295 ; Statistics:
                      00296 ; code size:      388 (0x0184) bytes ( 0.30%)
                      00297 ;                 194 (0x00c2) words
                      00298 ; udata size:       0 (0x0000) bytes ( 0.00%)
                      00299 ; access size:     10 (0x000a) bytes
                      00300 
                      00301 
                      00302         end
gpasm-0.14.1 (Aug 18 2017)   realloc.asm        8-18-2017  19:22:00          PAGE  7


SYMBOL TABLE
  LABEL                             VALUE

FSR0H                             00000FEA
FSR0L                             00000FE9
FSR1L                             00000FE1
FSR2L                             00000FD9
INDF0                             00000FEF
PLUSW2                            00000FDB
POSTDEC1                          00000FE5
POSTINC1                          00000FE6
PREINC1                           00000FE4
PRODH                             00000FF4
PRODL                             00000FF3
STATUS                            00000FD8
WREG                              00000FE8
_00106_DS_                        0000004E
_00108_DS_                        00000068
_00110_DS_                        00000082
_00112_DS_                        000000D0
_00114_DS_                        000000EA
_00116_DS_                        00000150
_00117_DS_                        00000156
__18F452                          00000001
__mergeHeapBlock                  00000000
_free                             00000000
_heap                             00000000
_malloc                           00000000
_realloc                          00000000
r0x00                             00000000
r0x01                             00000001
r0x02                             00000002
r0x03                             00000003
r0x04                             00000004
r0x05                             00000005
r0x06                             00000006
r0x07                             00000007
r0x08                             00000008
r0x09                             00000009

Errors   :     0
Warnings :     0 reported,     0 suppressed
Messages :     0 reported,     0 suppressed

