gpasm-0.14.1 (Aug 18 2017)   strmputchar.asm    8-18-2017  19:21:42          PAGE  1


LOC  OBJECT CODE     LINE SOURCE TEXT
  VALUE

                      00001 ;--------------------------------------------------------
                      00002 ; File Created by SDCC : free open source ANSI-C Compiler
                      00003 ; Version 3.2.0 #8004 (Aug 18 2017) (MINGW32)
                      00004 ; This file was generated Fri Aug 18 19:21:42 2017
                      00005 ;--------------------------------------------------------
                      00006 ; PIC16 port for the Microchip 16-bit core micros
                      00007 ;--------------------------------------------------------
                      00008         list    p=18f452
                      00009 
                      00010         radix dec
                      00011 
                      00012 ;--------------------------------------------------------
                      00013 ; public variables in this module
                      00014 ;--------------------------------------------------------
                      00015         global  ___stream_putchar
                      00016 
                      00017 ;--------------------------------------------------------
                      00018 ; extern variables in this module
                      00019 ;--------------------------------------------------------
                      00020         extern  __gptrget3
                      00021         extern  __gptrput1
                      00022         extern  __gptrput3
                      00023         extern  _stdin
                      00024         extern  _stdout
                      00025         extern  _putchar
                      00026         extern  ___stream_usart_putchar
                      00027         extern  ___stream_mssp_putchar
                      00028         extern  ___stream_gpsim_putchar
                      00029 
                      00030 ;--------------------------------------------------------
                      00031 ;       Equates to used internal registers
                      00032 ;--------------------------------------------------------
  00000FD8            00033 STATUS  equ     0xfd8
  00000FF6            00034 TBLPTRL equ     0xff6
  00000FE9            00035 FSR0L   equ     0xfe9
  00000FE1            00036 FSR1L   equ     0xfe1
  00000FD9            00037 FSR2L   equ     0xfd9
  00000FE5            00038 POSTDEC1        equ     0xfe5
  00000FE4            00039 PREINC1 equ     0xfe4
  00000FDB            00040 PLUSW2  equ     0xfdb
  00000FF3            00041 PRODL   equ     0xff3
  00000FF4            00042 PRODH   equ     0xff4
                      00043 
                      00044 
                      00045 ; Internal registers
                      00046 .registers      udata_ovr       0x0000
000000                00047 r0x00   res     1
000001                00048 r0x01   res     1
000002                00049 r0x02   res     1
000003                00050 r0x03   res     1
000004                00051 r0x04   res     1
000005                00052 r0x05   res     1
000006                00053 r0x06   res     1
gpasm-0.14.1 (Aug 18 2017)   strmputchar.asm    8-18-2017  19:21:42          PAGE  2


LOC  OBJECT CODE     LINE SOURCE TEXT
  VALUE

000007                00054 r0x07   res     1
                      00055 
                      00056 ;--------------------------------------------------------
                      00057 ; global & static initialisations
                      00058 ;--------------------------------------------------------
                      00059 ; I code from now on!
                      00060 ; ; Starting pCode block
                      00061 ; ;ic:1:  _entry($18) :
                      00062 ; ;ic:2:        proc ___stream_putchar [k1 lr0:0 so:0]{ ia0 a2p0 re0 rm0 nos0 ru0 dp0}{void function ( char generic* generic* fixed, char fixed) fixed}
                      00063 S_strmputchar____stream_putchar code
000000                00064 ___stream_putchar:
                      00065 ;       .line   32; stdio/strmputchar.c __stream_putchar (FILE *stream, char c)
000000 CFD9 FFE5      00066         MOVFF   FSR2L, POSTDEC1
000004 CFE1 FFD9      00067         MOVFF   FSR1L, FSR2L
000008 C000 FFE5      00068         MOVFF   r0x00, POSTDEC1
00000C C000 FFE5      00069         MOVFF   r0x01, POSTDEC1
000010 C000 FFE5      00070         MOVFF   r0x02, POSTDEC1
000014 C000 FFE5      00071         MOVFF   r0x03, POSTDEC1
000018 C000 FFE5      00072         MOVFF   r0x04, POSTDEC1
00001C C000 FFE5      00073         MOVFF   r0x05, POSTDEC1
000020 C000 FFE5      00074         MOVFF   r0x06, POSTDEC1
000024 C000 FFE5      00075         MOVFF   r0x07, POSTDEC1
                      00076 ; ;ic:3: iTemp0 [k2 lr3:14 so:0]{ ia0 a2p0 re1 rm0 nos0 ru0 dp0}{char generic* generic* fixed}{ sir@ ___stream_putchar_stream_1_16}[r0x00 r0x01 r0x02 ] = recv ___stream_putchar [k1 lr0:0 so:0]{ ia0 a2p0 re0 rm0 nos0 ru0 dp0}{void function ( char generic* generic* fixed, char fixed) fixed}
000028 0E02           00077         MOVLW   0x02
00002A CFDB F000      00078         MOVFF   PLUSW2, r0x00
00002E 0E03           00079         MOVLW   0x03
000030 CFDB F000      00080         MOVFF   PLUSW2, r0x01
000034 0E04           00081         MOVLW   0x04
000036 CFDB F000      00082         MOVFF   PLUSW2, r0x02
                      00083 ; ;ic:4: iTemp1 [k4 lr4:39 so:0]{ ia0 a2p0 re1 rm0 nos0 ru0 dp0}{char fixed}{ sir@ ___stream_putchar_c_1_16}[r0x03 ] = recv ___stream_putchar [k1 lr0:0 so:0]{ ia0 a2p0 re0 rm0 nos0 ru0 dp0}{void function ( char generic* generic* fixed, char fixed) fixed}
00003A 0E05           00084         MOVLW   0x05
00003C CFDB F000      00085         MOVFF   PLUSW2, r0x03
                      00086 ; ;ic:5:        iTemp3 [k8 lr5:6 so:0]{ ia0 a2p0 re0 rm0 nos0 ru0 dp0}{unsigned-long-int fixed}[r0x04 r0x05 r0x06 r0x07 ] = (unsigned-long-int fixed)iTemp0 [k2 lr3:14 so:0]{ ia0 a2p0 re1 rm0 nos0 ru0 dp0}{char generic* generic* fixed}{ sir@ ___stream_putchar_stream_1_16}[r0x00 r0x01 r0x02 ]
                      00087 ;       .line   36; stdio/strmputchar.c deref = (unsigned char) (((unsigned long) stream) >> 16);
000040 C000 F000      00088         MOVFF   r0x02, r0x06
                      00089 ; ;ic:6:        iTemp4 [k9 lr6:7 so:0]{ ia0 a2p0 re0 rm0 nos0 ru0 dp0}{unsigned-long-int fixed}[r0x04 r0x05 r0x06 r0x07 ] = iTemp3 [k8 lr5:6 so:0]{ ia0 a2p0 re0 rm0 nos0 ru0 dp0}{unsigned-long-int fixed}[r0x04 r0x05 r0x06 r0x07 ] >> 0x10 {const-unsigned-char literal}
000044 5000           00090         MOVF    r0x06, W
000046 6E00           00091         MOVWF   r0x04
                      00092 ; ;ic:7:        iTemp2 [k6 lr7:37 so:0]{ ia0 a2p0 re1 rm0 nos0 ru0 dp0}{unsigned-char fixed}{ sir@ ___stream_putchar_deref_1_17}[r0x04 ] = (unsigned-char fixed)iTemp4 [k9 lr6:7 so:0]{ ia0 a2p0 re0 rm0 nos0 ru0 dp0}{unsigned-long-int fixed}[r0x04 r0x05 r0x06 r0x07 ]
                      00093 ; ;ic:8:        iTemp6 [k11 lr8:9 so:0]{ ia0 a2p0 re0 rm0 nos0 ru0 dp0}{char fixed} = iTemp2 [k6 lr7:37 so:0]{ ia0 a2p0 re1 rm0 nos0 ru0 dp0}{unsigned-char fixed}{ sir@ ___stream_putchar_deref_1_17}[r0x04 ] == 0x80 {const-unsigned-char literal}
                      00094 ;       .line   43; stdio/strmputchar.c if (deref == 0x80)
000048 0A80           00095         XORLW   0x80
00004A E100           00096         BNZ     _00119_DS_
                      00097 ; ;ic:9:        if iTemp6 [k11 lr8:9 so:0]{ ia0 a2p0 re0 rm0 nos0 ru0 dp0}{char fixed} == 0 goto _iffalse_5($15)
                      00098 ; ;ic:10:       iTemp8 [k13 lr10:11 so:0]{ ia0 a2p0 re0 rm0 nos0 ru0 dp0}{char generic* fixed}[r0x05 r0x06 r0x07 ] = @[iTemp0 [k2 lr3:14 so:0]{ ia1 a2p0 re1 rm0 nos0 ru0 dp0}{char generic* generic* fixed}{ sir@ ___stream_putchar_stream_1_16}[r0x00 r0x01 r0x02 ] + 0x0 {const-unsigned-char literal}]
                      00099 ;       .line   46; stdio/strmputchar.c *(*(char **) stream) = c;
00004C C000 FFE9      00100         MOVFF   r0x00, FSR0L
000050 C000 FFF3      00101         MOVFF   r0x01, PRODL
000054 5000           00102         MOVF    r0x02, W
000056 EC00 F000      00103         CALL    __gptrget3
00005A 6E00           00104         MOVWF   r0x05
00005C CFF3 F000      00105         MOVFF   PRODL, r0x06
000060 CFF4 F000      00106         MOVFF   PRODH, r0x07
gpasm-0.14.1 (Aug 18 2017)   strmputchar.asm    8-18-2017  19:21:42          PAGE  3


LOC  OBJECT CODE     LINE SOURCE TEXT
  VALUE

                      00107 ; ;ic:11:       *(iTemp8 [k13 lr10:11 so:0]{ ia1 a2p0 re0 rm0 nos0 ru0 dp0}{char generic* fixed}[r0x05 r0x06 r0x07 ]) := iTemp1 [k4 lr4:39 so:0]{ ia0 a2p0 re1 rm0 nos0 ru0 dp0}{char fixed}{ sir@ ___stream_putchar_c_1_16}[r0x03 ]
000064 C000 FFE5      00108         MOVFF   r0x03, POSTDEC1
000068 C000 FFE9      00109         MOVFF   r0x05, FSR0L
00006C C000 FFF3      00110         MOVFF   r0x06, PRODL
000070 5000           00111         MOVF    r0x07, W
000072 EC00 F000      00112         CALL    __gptrput1
                      00113 ; ;ic:12:       iTemp11 [k16 lr12:13 so:0]{ ia0 a2p0 re0 rm0 nos0 ru0 dp0}{char generic* fixed}[r0x05 r0x06 r0x07 ] = @[iTemp0 [k2 lr3:14 so:0]{ ia1 a2p0 re1 rm0 nos0 ru0 dp0}{char generic* generic* fixed}{ sir@ ___stream_putchar_stream_1_16}[r0x00 r0x01 r0x02 ] + 0x0 {const-unsigned-char literal}]
                      00114 ;       .line   47; stdio/strmputchar.c *(char **) stream += 1;
000076 C000 FFE9      00115         MOVFF   r0x00, FSR0L
00007A C000 FFF3      00116         MOVFF   r0x01, PRODL
00007E 5000           00117         MOVF    r0x02, W
000080 EC00 F000      00118         CALL    __gptrget3
000084 6E00           00119         MOVWF   r0x05
000086 CFF3 F000      00120         MOVFF   PRODL, r0x06
00008A CFF4 F000      00121         MOVFF   PRODH, r0x07
                      00122 ; ;ic:13:       iTemp12 [k17 lr13:14 so:0]{ ia0 a2p0 re0 rm0 nos0 ru0 dp0}{char generic* fixed}[r0x05 r0x06 r0x07 ] = iTemp11 [k16 lr12:13 so:0]{ ia0 a2p0 re0 rm0 nos0 ru0 dp0}{char generic* fixed}[r0x05 r0x06 r0x07 ] + 0x1 {const-unsigned-char literal}
00008E 2A00           00123         INCF    r0x05, F
000090 E300           00124         BNC     _00137_DS_
000092 4A00           00125         INFSNZ  r0x06, F
000094 2A00           00126         INCF    r0x07, F
                      00127 ; ;ic:14:       *(iTemp0 [k2 lr3:14 so:0]{ ia1 a2p0 re1 rm0 nos0 ru0 dp0}{char generic* generic* fixed}{ sir@ ___stream_putchar_stream_1_16}[r0x00 r0x01 r0x02 ]) := iTemp12 [k17 lr13:14 so:0]{ ia0 a2p0 re0 rm0 nos0 ru0 dp0}{char generic* fixed}[r0x05 r0x06 r0x07 ]
000096                00128 _00137_DS_:
000096 C000 FFE5      00129         MOVFF   r0x05, POSTDEC1
00009A C000 FFF4      00130         MOVFF   r0x06, PRODH
00009E C000 FFF6      00131         MOVFF   r0x07, TBLPTRL
0000A2 C000 FFE9      00132         MOVFF   r0x00, FSR0L
0000A6 C000 FFF3      00133         MOVFF   r0x01, PRODL
0000AA 5000           00134         MOVF    r0x02, W
0000AC EC00 F000      00135         CALL    __gptrput3
                      00136 ; ;ic:15:        goto _return($17)
0000B0 D000           00137         BRA     _00121_DS_
                      00138 ; ;ic:16:  _iffalse_5($15) :
                      00139 ; ;ic:17:       iTemp13 [k18 lr17:18 so:0]{ ia0 a2p0 re0 rm0 nos0 ru0 dp0}{unsigned-char register} = iTemp2 [k6 lr7:37 so:0]{ ia0 a2p0 re1 rm0 nos0 ru0 dp0}{unsigned-char fixed}{ sir@ ___stream_putchar_deref_1_17}[r0x04 ] & 0x20 {const-unsigned-char literal}
0000B2                00140 _00119_DS_:
                      00141 ;       .line   49; stdio/strmputchar.c else if (deref & 0x20)
0000B2 AA00           00142         BTFSS   r0x04, 5
0000B4 D000           00143         BRA     _00121_DS_
                      00144 ; ;ic:18:       if iTemp13 [k18 lr17:18 so:0]{ ia0 a2p0 re0 rm0 nos0 ru0 dp0}{unsigned-char register} == 0 goto _return($17)
                      00145 ; ;ic:19:       iTemp2 [k6 lr7:37 so:0]{ ia0 a2p0 re1 rm0 nos0 ru0 dp0}{unsigned-char fixed}{ sir@ ___stream_putchar_deref_1_17}[r0x04 ] = iTemp2 [k6 lr7:37 so:0]{ ia0 a2p0 re1 rm0 nos0 ru0 dp0}{unsigned-char fixed}{ sir@ ___stream_putchar_deref_1_17}[r0x04 ] ^ 0x20 {const-unsigned-char literal}
                      00146 ;       .line   51; stdio/strmputchar.c deref ^= 0x20;
0000B6 7A00           00147         BTG     r0x04, 5
                      00148 ; ;ic:20:       if iTemp2 [k6 lr7:37 so:0]{ ia0 a2p0 re1 rm0 nos0 ru0 dp0}{unsigned-char fixed}{ sir@ ___stream_putchar_deref_1_17}[r0x04 ] != 0 goto _iffalse_3($10)
                      00149 ;       .line   52; stdio/strmputchar.c if (deref == USART_DEREF)
0000B8 5000           00150         MOVF    r0x04, W
0000BA E100           00151         BNZ     _00114_DS_
                      00152 ; ;ic:21:       send iTemp1 [k4 lr4:39 so:0]{ ia0 a2p0 re1 rm0 nos0 ru0 dp0}{char fixed}{ sir@ ___stream_putchar_c_1_16}[r0x03 ]{argreg = 1}
                      00153 ; ;ic:22:       iTemp15 [k22 lr22:22 so:0]{ ia0 a2p0 re0 rm0 nos0 ru0 dp0}{void fixed} = call ___stream_usart_putchar [k20 lr0:0 so:0]{ ia0 a2p0 re0 rm0 nos0 ru0 dp0}{void function ( char fixed) fixed}
                      00154 ;       .line   53; stdio/strmputchar.c __stream_usart_putchar (c);
0000BC 5000           00155         MOVF    r0x03, W
0000BE EC00 F000      00156         CALL    ___stream_usart_putchar
                      00157 ; ;ic:23:        goto _return($17)
0000C2 D000           00158         BRA     _00121_DS_
                      00159 ; ;ic:24:  _iffalse_3($10) :
gpasm-0.14.1 (Aug 18 2017)   strmputchar.asm    8-18-2017  19:21:42          PAGE  4


LOC  OBJECT CODE     LINE SOURCE TEXT
  VALUE

                      00160 ; ;ic:25:       iTemp16 [k23 lr25:26 so:0]{ ia0 a2p0 re0 rm0 nos0 ru0 dp0}{char fixed} = iTemp2 [k6 lr7:37 so:0]{ ia0 a2p0 re1 rm0 nos0 ru0 dp0}{unsigned-char fixed}{ sir@ ___stream_putchar_deref_1_17}[r0x04 ] == 0x1 {const-unsigned-char literal}
0000C4                00161 _00114_DS_:
                      00162 ;       .line   54; stdio/strmputchar.c else if (deref == MSSP_DEREF)
0000C4 5000           00163         MOVF    r0x04, W
0000C6 0A01           00164         XORLW   0x01
0000C8 E100           00165         BNZ     _00111_DS_
                      00166 ; ;ic:26:       if iTemp16 [k23 lr25:26 so:0]{ ia0 a2p0 re0 rm0 nos0 ru0 dp0}{char fixed} == 0 goto _iffalse_2($7)
                      00167 ; ;ic:27:       send iTemp1 [k4 lr4:39 so:0]{ ia0 a2p0 re1 rm0 nos0 ru0 dp0}{char fixed}{ sir@ ___stream_putchar_c_1_16}[r0x03 ]{argreg = 1}
                      00168 ; ;ic:28:       iTemp17 [k26 lr28:28 so:0]{ ia0 a2p0 re0 rm0 nos0 ru0 dp0}{void fixed} = call ___stream_mssp_putchar [k24 lr0:0 so:0]{ ia0 a2p0 re0 rm0 nos0 ru0 dp0}{void function ( char fixed) fixed}
                      00169 ;       .line   55; stdio/strmputchar.c __stream_mssp_putchar (c);
0000CA 5000           00170         MOVF    r0x03, W
0000CC EC00 F000      00171         CALL    ___stream_mssp_putchar
                      00172 ; ;ic:29:        goto _return($17)
0000D0 D000           00173         BRA     _00121_DS_
                      00174 ; ;ic:30:  _iffalse_2($7) :
                      00175 ; ;ic:31:       iTemp18 [k27 lr31:32 so:0]{ ia0 a2p0 re0 rm0 nos0 ru0 dp0}{char fixed} = iTemp2 [k6 lr7:37 so:0]{ ia0 a2p0 re1 rm0 nos0 ru0 dp0}{unsigned-char fixed}{ sir@ ___stream_putchar_deref_1_17}[r0x04 ] == 0xf {const-unsigned-char literal}
0000D2                00176 _00111_DS_:
                      00177 ;       .line   56; stdio/strmputchar.c else if (deref == USER_DEREF)
0000D2 5000           00178         MOVF    r0x04, W
0000D4 0A0F           00179         XORLW   0x0f
0000D6 E100           00180         BNZ     _00108_DS_
                      00181 ; ;ic:32:       if iTemp18 [k27 lr31:32 so:0]{ ia0 a2p0 re0 rm0 nos0 ru0 dp0}{char fixed} == 0 goto _iffalse_1($4)
                      00182 ; ;ic:33:       send iTemp1 [k4 lr4:39 so:0]{ ia0 a2p0 re1 rm0 nos0 ru0 dp0}{char fixed}{ sir@ ___stream_putchar_c_1_16}[r0x03 ]{argreg = 1}
                      00183 ; ;ic:34:       iTemp19 [k30 lr34:34 so:0]{ ia0 a2p0 re0 rm0 nos0 ru0 dp0}{void fixed} = call _putchar [k28 lr0:0 so:0]{ ia0 a2p0 re0 rm0 nos0 ru0 dp0}{void function ( char fixed) fixed}
                      00184 ;       .line   57; stdio/strmputchar.c putchar (c);
0000D8 5000           00185         MOVF    r0x03, W
0000DA EC00 F000      00186         CALL    _putchar
                      00187 ; ;ic:35:        goto _return($17)
0000DE D000           00188         BRA     _00121_DS_
                      00189 ; ;ic:36:  _iffalse_1($4) :
                      00190 ; ;ic:37:       iTemp20 [k31 lr37:38 so:0]{ ia0 a2p0 re0 rm0 nos0 ru0 dp0}{char fixed} = iTemp2 [k6 lr7:37 so:0]{ ia0 a2p0 re1 rm0 nos0 ru0 dp0}{unsigned-char fixed}{ sir@ ___stream_putchar_deref_1_17}[r0x04 ] == 0xe {const-unsigned-char literal}
0000E0                00191 _00108_DS_:
                      00192 ;       .line   58; stdio/strmputchar.c else if (deref == GPSIM_DEREF)    /* see stdio.h for info on this */
0000E0 5000           00193         MOVF    r0x04, W
0000E2 0A0E           00194         XORLW   0x0e
0000E4 E100           00195         BNZ     _00121_DS_
                      00196 ; ;ic:38:       if iTemp20 [k31 lr37:38 so:0]{ ia0 a2p0 re0 rm0 nos0 ru0 dp0}{char fixed} == 0 goto _return($17)
                      00197 ; ;ic:39:       send iTemp1 [k4 lr4:39 so:0]{ ia0 a2p0 re1 rm0 nos0 ru0 dp0}{char fixed}{ sir@ ___stream_putchar_c_1_16}[r0x03 ]{argreg = 1}
                      00198 ; ;ic:40:       iTemp21 [k34 lr40:40 so:0]{ ia0 a2p0 re0 rm0 nos0 ru0 dp0}{void fixed} = call ___stream_gpsim_putchar [k32 lr0:0 so:0]{ ia0 a2p0 re0 rm0 nos0 ru0 dp0}{void function ( char fixed) fixed}
                      00199 ;       .line   59; stdio/strmputchar.c __stream_gpsim_putchar (c);     /* feature */
0000E6 5000           00200         MOVF    r0x03, W
0000E8 EC00 F000      00201         CALL    ___stream_gpsim_putchar
                      00202 ; ;ic:41:  _return($17) :
                      00203 ; ;ic:42:       eproc ___stream_putchar [k1 lr0:0 so:0]{ ia0 a2p0 re0 rm0 nos0 ru0 dp0}{void function ( char generic* generic* fixed, char fixed) fixed}
0000EC                00204 _00121_DS_:
0000EC CFE4 F000      00205         MOVFF   PREINC1, r0x07
0000F0 CFE4 F000      00206         MOVFF   PREINC1, r0x06
0000F4 CFE4 F000      00207         MOVFF   PREINC1, r0x05
0000F8 CFE4 F000      00208         MOVFF   PREINC1, r0x04
0000FC CFE4 F000      00209         MOVFF   PREINC1, r0x03
000100 CFE4 F000      00210         MOVFF   PREINC1, r0x02
000104 CFE4 F000      00211         MOVFF   PREINC1, r0x01
000108 CFE4 F000      00212         MOVFF   PREINC1, r0x00
gpasm-0.14.1 (Aug 18 2017)   strmputchar.asm    8-18-2017  19:21:42          PAGE  5


LOC  OBJECT CODE     LINE SOURCE TEXT
  VALUE

00010C CFE4 FFD9      00213         MOVFF   PREINC1, FSR2L
000110 0012           00214         RETURN  
                      00215 
                      00216 
                      00217 
                      00218 ; Statistics:
                      00219 ; code size:      274 (0x0112) bytes ( 0.21%)
                      00220 ;                 137 (0x0089) words
                      00221 ; udata size:       0 (0x0000) bytes ( 0.00%)
                      00222 ; access size:      8 (0x0008) bytes
                      00223 
                      00224 
                      00225         end
gpasm-0.14.1 (Aug 18 2017)   strmputchar.asm    8-18-2017  19:21:42          PAGE  6


SYMBOL TABLE
  LABEL                             VALUE

FSR0L                             00000FE9
FSR1L                             00000FE1
FSR2L                             00000FD9
PLUSW2                            00000FDB
POSTDEC1                          00000FE5
PREINC1                           00000FE4
PRODH                             00000FF4
PRODL                             00000FF3
STATUS                            00000FD8
TBLPTRL                           00000FF6
_00108_DS_                        000000E0
_00111_DS_                        000000D2
_00114_DS_                        000000C4
_00119_DS_                        000000B2
_00121_DS_                        000000EC
_00137_DS_                        00000096
__18F452                          00000001
___stream_gpsim_putchar           00000000
___stream_mssp_putchar            00000000
___stream_putchar                 00000000
___stream_usart_putchar           00000000
__gptrget3                        00000000
__gptrput1                        00000000
__gptrput3                        00000000
_putchar                          00000000
_stdin                            00000000
_stdout                           00000000
r0x00                             00000000
r0x01                             00000001
r0x02                             00000002
r0x03                             00000003
r0x04                             00000004
r0x05                             00000005
r0x06                             00000006
r0x07                             00000007

Errors   :     0
Warnings :     0 reported,     0 suppressed
Messages :     0 reported,     0 suppressed

