gpasm-0.14.1 (Aug 18 2017)   libio18f2220_a-i2cwrites.asm8-18-2017  19:27:53          PAGE  1


LOC  OBJECT CODE     LINE SOURCE TEXT
  VALUE

                      00001 ;--------------------------------------------------------
                      00002 ; File Created by SDCC : free open source ANSI-C Compiler
                      00003 ; Version 3.2.0 #8004 (Aug 18 2017) (MINGW32)
                      00004 ; This file was generated Fri Aug 18 19:27:53 2017
                      00005 ;--------------------------------------------------------
                      00006 ; PIC16 port for the Microchip 16-bit core micros
                      00007 ;--------------------------------------------------------
                      00008         list    p=18f2220
                      00009 
                      00010         radix dec
                      00011 
                      00012 ;--------------------------------------------------------
                      00013 ; public variables in this module
                      00014 ;--------------------------------------------------------
                      00015         global  _i2c_writestr
                      00016 
                      00017 ;--------------------------------------------------------
                      00018 ; extern variables in this module
                      00019 ;--------------------------------------------------------
                      00020         extern  __gptrget1
                      00021         extern  _PORTAbits
                      00022         extern  _PORTBbits
                      00023         extern  _PORTCbits
                      00024         extern  _LATAbits
                      00025         extern  _LATBbits
                      00026         extern  _LATCbits
                      00027         extern  _TRISAbits
                      00028         extern  _TRISBbits
                      00029         extern  _TRISCbits
                      00030         extern  _OSCTUNEbits
                      00031         extern  _PIE1bits
                      00032         extern  _PIR1bits
                      00033         extern  _IPR1bits
                      00034         extern  _PIE2bits
                      00035         extern  _PIR2bits
                      00036         extern  _IPR2bits
                      00037         extern  _EECON1bits
                      00038         extern  _RCSTAbits
                      00039         extern  _TXSTAbits
                      00040         extern  _T3CONbits
                      00041         extern  _CMCONbits
                      00042         extern  _CVRCONbits
                      00043         extern  _CCP2CONbits
                      00044         extern  _CCP1CONbits
                      00045         extern  _ADCON2bits
                      00046         extern  _ADCON1bits
                      00047         extern  _ADCON0bits
                      00048         extern  _SSPCON2bits
                      00049         extern  _SSPCON1bits
                      00050         extern  _SSPSTATbits
                      00051         extern  _T2CONbits
                      00052         extern  _T1CONbits
                      00053         extern  _RCONbits
gpasm-0.14.1 (Aug 18 2017)   libio18f2220_a-i2cwrites.asm8-18-2017  19:27:53          PAGE  2


LOC  OBJECT CODE     LINE SOURCE TEXT
  VALUE

                      00054         extern  _WDTCONbits
                      00055         extern  _LVDCONbits
                      00056         extern  _OSCCONbits
                      00057         extern  _T0CONbits
                      00058         extern  _STATUSbits
                      00059         extern  _INTCON3bits
                      00060         extern  _INTCON2bits
                      00061         extern  _INTCONbits
                      00062         extern  _STKPTRbits
                      00063         extern  _PORTA
                      00064         extern  _PORTB
                      00065         extern  _PORTC
                      00066         extern  _LATA
                      00067         extern  _LATB
                      00068         extern  _LATC
                      00069         extern  _TRISA
                      00070         extern  _TRISB
                      00071         extern  _TRISC
                      00072         extern  _OSCTUNE
                      00073         extern  _PIE1
                      00074         extern  _PIR1
                      00075         extern  _IPR1
                      00076         extern  _PIE2
                      00077         extern  _PIR2
                      00078         extern  _IPR2
                      00079         extern  _EECON1
                      00080         extern  _EECON2
                      00081         extern  _EEDATA
                      00082         extern  _EEADR
                      00083         extern  _RCSTA
                      00084         extern  _TXSTA
                      00085         extern  _TXREG
                      00086         extern  _RCREG
                      00087         extern  _SPBRG
                      00088         extern  _T3CON
                      00089         extern  _TMR3L
                      00090         extern  _TMR3H
                      00091         extern  _CMCON
                      00092         extern  _CVRCON
                      00093         extern  _CCP2CON
                      00094         extern  _CCPR2L
                      00095         extern  _CCPR2H
                      00096         extern  _CCP1CON
                      00097         extern  _CCPR1L
                      00098         extern  _CCPR1H
                      00099         extern  _ADCON2
                      00100         extern  _ADCON1
                      00101         extern  _ADCON0
                      00102         extern  _ADRESL
                      00103         extern  _ADRESH
                      00104         extern  _SSPCON2
                      00105         extern  _SSPCON1
                      00106         extern  _SSPSTAT
gpasm-0.14.1 (Aug 18 2017)   libio18f2220_a-i2cwrites.asm8-18-2017  19:27:53          PAGE  3


LOC  OBJECT CODE     LINE SOURCE TEXT
  VALUE

                      00107         extern  _SSPADD
                      00108         extern  _SSPBUF
                      00109         extern  _T2CON
                      00110         extern  _PR2
                      00111         extern  _TMR2
                      00112         extern  _T1CON
                      00113         extern  _TMR1L
                      00114         extern  _TMR1H
                      00115         extern  _RCON
                      00116         extern  _WDTCON
                      00117         extern  _LVDCON
                      00118         extern  _OSCCON
                      00119         extern  _T0CON
                      00120         extern  _TMR0L
                      00121         extern  _TMR0H
                      00122         extern  _STATUS
                      00123         extern  _FSR2L
                      00124         extern  _FSR2H
                      00125         extern  _PLUSW2
                      00126         extern  _PREINC2
                      00127         extern  _POSTDEC2
                      00128         extern  _POSTINC2
                      00129         extern  _INDF2
                      00130         extern  _BSR
                      00131         extern  _FSR1L
                      00132         extern  _FSR1H
                      00133         extern  _PLUSW1
                      00134         extern  _PREINC1
                      00135         extern  _POSTDEC1
                      00136         extern  _POSTINC1
                      00137         extern  _INDF1
                      00138         extern  _WREG
                      00139         extern  _FSR0L
                      00140         extern  _FSR0H
                      00141         extern  _PLUSW0
                      00142         extern  _PREINC0
                      00143         extern  _POSTDEC0
                      00144         extern  _POSTINC0
                      00145         extern  _INDF0
                      00146         extern  _INTCON3
                      00147         extern  _INTCON2
                      00148         extern  _INTCON
                      00149         extern  _PRODL
                      00150         extern  _PRODH
                      00151         extern  _TABLAT
                      00152         extern  _TBLPTRL
                      00153         extern  _TBLPTRH
                      00154         extern  _TBLPTRU
                      00155         extern  _PCL
                      00156         extern  _PCLATH
                      00157         extern  _PCLATU
                      00158         extern  _STKPTR
                      00159         extern  _TOSL
gpasm-0.14.1 (Aug 18 2017)   libio18f2220_a-i2cwrites.asm8-18-2017  19:27:53          PAGE  4


LOC  OBJECT CODE     LINE SOURCE TEXT
  VALUE

                      00160         extern  _TOSH
                      00161         extern  _TOSU
                      00162         extern  _i2c_writechar
                      00163 
                      00164 ;--------------------------------------------------------
                      00165 ;       Equates to used internal registers
                      00166 ;--------------------------------------------------------
  00000FD8            00167 STATUS  equ     0xfd8
  00000FE8            00168 WREG    equ     0xfe8
  00000FE9            00169 FSR0L   equ     0xfe9
  00000FE1            00170 FSR1L   equ     0xfe1
  00000FD9            00171 FSR2L   equ     0xfd9
  00000FE6            00172 POSTINC1        equ     0xfe6
  00000FE5            00173 POSTDEC1        equ     0xfe5
  00000FE4            00174 PREINC1 equ     0xfe4
  00000FDB            00175 PLUSW2  equ     0xfdb
  00000FF3            00176 PRODL   equ     0xff3
                      00177 
                      00178 
                      00179 ; Internal registers
                      00180 .registers      udata_ovr       0x0000
000000                00181 r0x00   res     1
000001                00182 r0x01   res     1
000002                00183 r0x02   res     1
000003                00184 r0x03   res     1
000004                00185 r0x04   res     1
                      00186 
                      00187 ;--------------------------------------------------------
                      00188 ; global & static initialisations
                      00189 ;--------------------------------------------------------
                      00190 ; I code from now on!
                      00191 ; ; Starting pCode block
                      00192 ; ;ic:1:  _entry($20) :
                      00193 ; ;ic:2:        proc _i2c_writestr [k1 lr0:0 so:0]{ ia0 a2p0 re0 rm0 nos0 ru0 dp0}{char function ( unsigned-char generic* fixed) fixed}
                      00194 S_i2cwrites__i2c_writestr       code
000000                00195 _i2c_writestr:
                      00196 ;       .line   32; i2c/i2cwrites.c     char i2c_writestr(unsigned char *ptr)
000000 CFD9 FFE5      00197         MOVFF   FSR2L, POSTDEC1
000004 CFE1 FFD9      00198         MOVFF   FSR1L, FSR2L
000008 C000 FFE5      00199         MOVFF   r0x00, POSTDEC1
00000C C000 FFE5      00200         MOVFF   r0x01, POSTDEC1
000010 C000 FFE5      00201         MOVFF   r0x02, POSTDEC1
000014 C000 FFE5      00202         MOVFF   r0x03, POSTDEC1
000018 C000 FFE5      00203         MOVFF   r0x04, POSTDEC1
                      00204 ; ;ic:3: iTemp35 [k54 lr3:56 so:0]{ ia0 a2p0 re0 rm0 nos0 ru0 dp0}{unsigned-char generic* fixed}[r0x00 r0x01 r0x02 ] = recv _i2c_writestr [k1 lr0:0 so:0]{ ia0 a2p0 re0 rm0 nos0 ru0 dp0}{char function ( unsigned-char generic* fixed) fixed}
00001C 0E02           00205         MOVLW   0x02
00001E CFDB F000      00206         MOVFF   PLUSW2, r0x00
000022 0E03           00207         MOVLW   0x03
000024 CFDB F000      00208         MOVFF   PLUSW2, r0x01
000028 0E04           00209         MOVLW   0x04
00002A CFDB F000      00210         MOVFF   PLUSW2, r0x02
                      00211 ; ;ic:5:  _whilecontinue_0($16) :
                      00212 ; ;ic:6:        iTemp2 [k5 lr6:12 so:0]{ ia0 a2p0 re0 rm0 nos0 ru0 dp0}{unsigned-char register}[r0x03 ] = @[iTemp35 [k54 lr3:56 so:0]{ ia1 a2p0 re0 rm0 nos0 ru0 dp0}{unsigned-char generic* fixed}[r0x00 r0x01 r0x02 ] + 0x0 {const-unsigned-char literal}]
gpasm-0.14.1 (Aug 18 2017)   libio18f2220_a-i2cwrites.asm8-18-2017  19:27:53          PAGE  5


LOC  OBJECT CODE     LINE SOURCE TEXT
  VALUE

00002E                00213 _00120_DS_:
                      00214 ;       .line   34; i2c/i2cwrites.c     while( *ptr ) {
00002E C000 FFE9      00215         MOVFF   r0x00, FSR0L
000032 C000 FFF3      00216         MOVFF   r0x01, PRODL
000036 5000           00217         MOVF    r0x02, W
000038 EC00 F000      00218         CALL    __gptrget1
00003C 6E00           00219         MOVWF   r0x03
                      00220 ; ;ic:7:        if iTemp2 [k5 lr6:12 so:0]{ ia0 a2p0 re0 rm0 nos0 ru0 dp0}{unsigned-char register}[r0x03 ] == 0 goto _whilebreak_0($18)
00003E 5000           00221         MOVF    r0x03, W
000040 E000           00222         BZ      _00122_DS_
                      00223 ; ;ic:8:        iTemp3 [k7 lr8:9 so:0]{ ia0 a2p0 re0 rm1 nos0 ru0 dp0}{volatile-unsigned-bitfield {3,1} near* fixed}[remat] = &[_SSPCON1bits [k6 lr0:0 so:0]{ ia0 a2p0 re0 rm0 nos0 ru0 dp0}{volatile-struct __00000116 fixed}]
                      00224 ; ;ic:9:        iTemp4 [k9 lr9:10 so:0]{ ia0 a2p0 re0 rm1 nos0 ru0 dp0}{volatile-unsigned-bitfield {3,1} near* fixed}[remat] := iTemp3 [k7 lr8:9 so:0]{ ia0 a2p0 re0 rm1 nos0 ru0 dp0}{volatile-unsigned-bitfield {3,1} near* fixed}[remat]
                      00225 ; ;ic:10:       iTemp5 [k10 lr10:11 so:0]{ ia0 a2p0 re0 rm0 nos0 ru0 dp0}{volatile-unsigned-bitfield {3,1} fixed}[bad ] = @[iTemp4 [k9 lr9:10 so:0]{ ia1 a2p0 re0 rm1 nos0 ru0 dp0}{volatile-unsigned-bitfield {3,1} near* fixed}[remat] + 0x0 {const-unsigned-char literal}]
                      00226 ;       .line   35; i2c/i2cwrites.c     if( SSPCON1bits.SSPM3 ) {
000042 A600           00227         BTFSS   _SSPCON1bits, 3
000044 D000           00228         BRA     _00118_DS_
                      00229 ; ;ic:11:       if iTemp5 [k10 lr10:11 so:0]{ ia0 a2p0 re0 rm0 nos0 ru0 dp0}{volatile-unsigned-bitfield {3,1} fixed}[bad ] == 0 goto _iffalse_3($14)
                      00230 ; ;ic:12:       send iTemp2 [k5 lr6:12 so:0]{ ia0 a2p0 re0 rm0 nos0 ru0 dp0}{unsigned-char register}[r0x03 ]{argreg = 1}
                      00231 ; ;ic:13:       iTemp8 [k15 lr13:14 so:0]{ ia0 a2p0 re0 rm0 nos0 ru0 dp0}{char fixed}[r0x03 ] = call _i2c_writechar [k11 lr0:0 so:0]{ ia0 a2p0 re0 rm0 nos0 ru0 dp0}{char function ( unsigned-char fixed) fixed}
                      00232 ;       .line   36; i2c/i2cwrites.c     if(i2c_writechar( *ptr )) {
000046 5000           00233         MOVF    r0x03, W
000048 6EE5           00234         MOVWF   POSTDEC1
00004A EC00 F000      00235         CALL    _i2c_writechar
00004E 6E00           00236         MOVWF   r0x03
000050 52E6           00237         MOVF    POSTINC1, F
                      00238 ; ;ic:14:       if iTemp8 [k15 lr13:14 so:0]{ ia0 a2p0 re0 rm0 nos0 ru0 dp0}{char fixed}[r0x03 ] == 0 goto _docontinue_0($3)
000052 5000           00239         MOVF    r0x03, W
000054 E000           00240         BZ      _00107_DS_
                      00241 ; ;ic:15:       ret 0xfffffffd {const-char literal}
                      00242 ;       .line   37; i2c/i2cwrites.c     return (-3);
000056 0EFD           00243         MOVLW   0xfd
000058 D000           00244         BRA     _00123_DS_
                      00245 ; ;ic:17:  _docontinue_0($3) :
                      00246 ; ;ic:18:       iTemp9 [k17 lr18:22 so:0]{ ia0 a2p0 re0 rm0 nos0 ru0 dp0}{unsigned-char register}[r0x03 ] = _SSPCON2 [k16 lr0:0 so:0]{ ia0 a2p0 re0 rm0 nos0 ru0 dp0}{volatile-unsigned-char sfr} & 0x1f {const-unsigned-char literal}
00005A                00247 _00107_DS_:
                      00248 ;       .line   39; i2c/i2cwrites.c     I2C_IDLE();
00005A 0E1F           00249         MOVLW   0x1f
00005C 1400           00250         ANDWF   _SSPCON2, W
00005E 6E00           00251         MOVWF   r0x03
                      00252 ; ;ic:19:       iTemp10 [k19 lr19:20 so:0]{ ia0 a2p0 re0 rm1 nos0 ru0 dp0}{volatile-unsigned-bitfield {2,1} near* fixed}[remat] = &[_SSPSTATbits [k18 lr0:0 so:0]{ ia0 a2p0 re0 rm0 nos0 ru0 dp0}{volatile-struct __00000118 fixed}]
                      00253 ; ;ic:20:       iTemp11 [k21 lr20:21 so:0]{ ia0 a2p0 re0 rm1 nos0 ru0 dp0}{volatile-unsigned-bitfield {2,1} near* fixed}[remat] := iTemp10 [k19 lr19:20 so:0]{ ia0 a2p0 re0 rm1 nos0 ru0 dp0}{volatile-unsigned-bitfield {2,1} near* fixed}[remat]
                      00254 ; ;ic:21:       iTemp12 [k22 lr21:23 so:0]{ ia0 a2p0 re0 rm0 nos0 ru0 dp0}{volatile-unsigned-bitfield {2,1} fixed}[r0x04 ] = @[iTemp11 [k21 lr20:21 so:0]{ ia1 a2p0 re0 rm1 nos0 ru0 dp0}{volatile-unsigned-bitfield {2,1} near* fixed}[remat] + 0x0 {const-unsigned-char literal}]
000060 6A00           00255         CLRF    r0x04
000062 B400           00256         BTFSC   _SSPSTATbits, 2
000064 2A00           00257         INCF    r0x04, F
                      00258 ; ;ic:22:       iTemp13 [k23 lr22:24 so:0]{ ia0 a2p0 re0 rm0 nos0 ru0 dp0}{char register}[r0x03 ] = (char register)iTemp9 [k17 lr18:22 so:0]{ ia0 a2p0 re0 rm0 nos0 ru0 dp0}{unsigned-char register}[r0x03 ]
                      00259 ; ;ic:23:       iTemp14 [k24 lr23:24 so:0]{ ia0 a2p0 re0 rm0 nos0 ru0 dp0}{char register}[r0x04 ] = (char register)iTemp12 [k22 lr21:23 so:0]{ ia0 a2p0 re0 rm0 nos0 ru0 dp0}{volatile-unsigned-bitfield {2,1} fixed}[r0x04 ]
                      00260 ; ;ic:24:       iTemp15 [k25 lr24:25 so:0]{ ia0 a2p0 re0 rm0 nos0 ru0 dp0}{char register}[r0x03 ] = iTemp13 [k23 lr22:24 so:0]{ ia0 a2p0 re0 rm0 nos0 ru0 dp0}{char register}[r0x03 ] | iTemp14 [k24 lr23:24 so:0]{ ia0 a2p0 re0 rm0 nos0 ru0 dp0}{char register}[r0x04 ]
000066 5000           00261         MOVF    r0x04, W
000068 1200           00262         IORWF   r0x03, F
                      00263 ; ;ic:25:       if iTemp15 [k25 lr24:25 so:0]{ ia0 a2p0 re0 rm0 nos0 ru0 dp0}{char register}[r0x03 ] != 0 goto _docontinue_0($3)
00006A 5000           00264         MOVF    r0x03, W
00006C E100           00265         BNZ     _00107_DS_
gpasm-0.14.1 (Aug 18 2017)   libio18f2220_a-i2cwrites.asm8-18-2017  19:27:53          PAGE  6


LOC  OBJECT CODE     LINE SOURCE TEXT
  VALUE

                      00266 ; ;ic:26:       iTemp16 [k27 lr26:27 so:0]{ ia0 a2p0 re0 rm1 nos0 ru0 dp0}{volatile-unsigned-bitfield {6,1} near* fixed}[remat] = &[_SSPCON2bits [k26 lr0:0 so:0]{ ia0 a2p0 re0 rm0 nos0 ru0 dp0}{volatile-struct __00000114 fixed}]
                      00267 ; ;ic:27:       iTemp17 [k29 lr27:28 so:0]{ ia0 a2p0 re0 rm1 nos0 ru0 dp0}{volatile-unsigned-bitfield {6,1} near* fixed}[remat] := iTemp16 [k27 lr26:27 so:0]{ ia0 a2p0 re0 rm1 nos0 ru0 dp0}{volatile-unsigned-bitfield {6,1} near* fixed}[remat]
                      00268 ; ;ic:28:       iTemp18 [k30 lr28:29 so:0]{ ia0 a2p0 re0 rm0 nos0 ru0 dp0}{volatile-unsigned-bitfield {6,1} fixed}[bad ] = @[iTemp17 [k29 lr27:28 so:0]{ ia1 a2p0 re0 rm1 nos0 ru0 dp0}{volatile-unsigned-bitfield {6,1} near* fixed}[remat] + 0x0 {const-unsigned-char literal}]
                      00269 ;       .line   40; i2c/i2cwrites.c     if( SSPCON2bits.ACKSTAT ) {
00006E AC00           00270         BTFSS   _SSPCON2bits, 6
000070 D000           00271         BRA     _00119_DS_
                      00272 ; ;ic:29:       if iTemp18 [k30 lr28:29 so:0]{ ia0 a2p0 re0 rm0 nos0 ru0 dp0}{volatile-unsigned-bitfield {6,1} fixed}[bad ] == 0 goto _ifend_3($15)
                      00273 ; ;ic:30:       ret 0xfffffffe {const-char literal}
                      00274 ;       .line   41; i2c/i2cwrites.c     return (-2);
000072 0EFE           00275         MOVLW   0xfe
000074 D000           00276         BRA     _00123_DS_
                      00277 ; ;ic:31:  _iffalse_3($14) :
                      00278 ; ;ic:32:       iTemp19 [k32 lr32:33 so:0]{ ia0 a2p0 re0 rm1 nos0 ru0 dp0}{volatile-unsigned-bitfield {3,1} near* fixed}[remat] = &[_PIR1bits [k31 lr0:0 so:0]{ ia0 a2p0 re0 rm0 nos0 ru0 dp0}{volatile-struct __00000051 fixed}]
                      00279 ; ;ic:33:       iTemp20 [k34 lr33:34 so:0]{ ia0 a2p0 re0 rm1 nos0 ru0 dp0}{volatile-unsigned-bitfield {3,1} near* fixed}[remat] := iTemp19 [k32 lr32:33 so:0]{ ia0 a2p0 re0 rm1 nos0 ru0 dp0}{volatile-unsigned-bitfield {3,1} near* fixed}[remat]
                      00280 ; ;ic:34:       *(iTemp20 [k34 lr33:34 so:0]{ ia1 a2p0 re0 rm1 nos0 ru0 dp0}{volatile-unsigned-bitfield {3,1} near* fixed}[remat]) := 0x0 {const-unsigned-char literal}
000076                00281 _00118_DS_:
                      00282 ;       .line   44; i2c/i2cwrites.c     PIR1bits.SSPIF = 0;
000076 9600           00283         BCF     _PIR1bits, 3
                      00284 ; ;ic:35:       _SSPBUF [k35 lr0:0 so:0]{ ia1 a2p0 re0 rm0 nos0 ru0 dp0}{volatile-unsigned-char sfr} = @[iTemp35 [k54 lr3:56 so:0]{ ia1 a2p0 re0 rm0 nos0 ru0 dp0}{unsigned-char generic* fixed}[r0x00 r0x01 r0x02 ] + 0x0 {const-unsigned-char literal}]
                      00285 ;       .line   45; i2c/i2cwrites.c     SSPBUF = *ptr;
000078 C000 FFE9      00286         MOVFF   r0x00, FSR0L
00007C C000 FFF3      00287         MOVFF   r0x01, PRODL
000080 5000           00288         MOVF    r0x02, W
000082 EC00 F000      00289         CALL    __gptrget1
000086 6E00           00290         MOVWF   _SSPBUF
                      00291 ; ;ic:36:       iTemp23 [k38 lr36:37 so:0]{ ia0 a2p0 re0 rm1 nos0 ru0 dp0}{volatile-unsigned-bitfield {4,1} near* fixed}[remat] = &[_SSPCON1bits [k6 lr0:0 so:0]{ ia0 a2p0 re0 rm0 nos0 ru0 dp0}{volatile-struct __00000116 fixed}]
                      00292 ; ;ic:37:       iTemp24 [k40 lr37:38 so:0]{ ia0 a2p0 re0 rm1 nos0 ru0 dp0}{volatile-unsigned-bitfield {4,1} near* fixed}[remat] := iTemp23 [k38 lr36:37 so:0]{ ia0 a2p0 re0 rm1 nos0 ru0 dp0}{volatile-unsigned-bitfield {4,1} near* fixed}[remat]
                      00293 ; ;ic:38:       *(iTemp24 [k40 lr37:38 so:0]{ ia1 a2p0 re0 rm1 nos0 ru0 dp0}{volatile-unsigned-bitfield {4,1} near* fixed}[remat]) := 0x1 {const-unsigned-char literal}
                      00294 ;       .line   46; i2c/i2cwrites.c     SSPCON1bits.CKP = 1;
000088 8800           00295         BSF     _SSPCON1bits, 4
                      00296 ; ;ic:40:  _whilecontinue_1($7) :
                      00297 ; ;ic:41:       iTemp25 [k41 lr41:42 so:0]{ ia0 a2p0 re0 rm1 nos0 ru0 dp0}{volatile-unsigned-bitfield {3,1} near* fixed}[remat] = &[_PIR1bits [k31 lr0:0 so:0]{ ia0 a2p0 re0 rm0 nos0 ru0 dp0}{volatile-struct __00000051 fixed}]
                      00298 ; ;ic:42:       iTemp26 [k43 lr42:43 so:0]{ ia0 a2p0 re0 rm1 nos0 ru0 dp0}{volatile-unsigned-bitfield {3,1} near* fixed}[remat] := iTemp25 [k41 lr41:42 so:0]{ ia0 a2p0 re0 rm1 nos0 ru0 dp0}{volatile-unsigned-bitfield {3,1} near* fixed}[remat]
                      00299 ; ;ic:43:       iTemp27 [k44 lr43:44 so:0]{ ia0 a2p0 re0 rm0 nos0 ru0 dp0}{volatile-unsigned-bitfield {3,1} fixed}[bad ] = @[iTemp26 [k43 lr42:43 so:0]{ ia1 a2p0 re0 rm1 nos0 ru0 dp0}{volatile-unsigned-bitfield {3,1} near* fixed}[remat] + 0x0 {const-unsigned-char literal}]
00008A                00300 _00111_DS_:
                      00301 ;       .line   47; i2c/i2cwrites.c     while( !PIR1bits.SSPIF );
00008A A600           00302         BTFSS   _PIR1bits, 3
00008C D000           00303         BRA     _00111_DS_
                      00304 ; ;ic:44:       if iTemp27 [k44 lr43:44 so:0]{ ia0 a2p0 re0 rm0 nos0 ru0 dp0}{volatile-unsigned-bitfield {3,1} fixed}[bad ] == 0 goto _whilecontinue_1($7)
                      00305 ; ;ic:45:       iTemp28 [k45 lr45:46 so:0]{ ia0 a2p0 re0 rm1 nos0 ru0 dp0}{volatile-unsigned-bitfield {2,1} near* fixed}[remat] = &[_SSPSTATbits [k18 lr0:0 so:0]{ ia0 a2p0 re0 rm0 nos0 ru0 dp0}{volatile-struct __00000118 fixed}]
                      00306 ; ;ic:46:       iTemp29 [k47 lr46:47 so:0]{ ia0 a2p0 re0 rm1 nos0 ru0 dp0}{volatile-unsigned-bitfield {2,1} near* fixed}[remat] := iTemp28 [k45 lr45:46 so:0]{ ia0 a2p0 re0 rm1 nos0 ru0 dp0}{volatile-unsigned-bitfield {2,1} near* fixed}[remat]
                      00307 ; ;ic:47:       iTemp30 [k48 lr47:48 so:0]{ ia0 a2p0 re0 rm0 nos0 ru0 dp0}{volatile-unsigned-bitfield {2,1} fixed}[bad ] = @[iTemp29 [k47 lr46:47 so:0]{ ia1 a2p0 re0 rm1 nos0 ru0 dp0}{volatile-unsigned-bitfield {2,1} near* fixed}[remat] + 0x0 {const-unsigned-char literal}]
                      00308 ;       .line   49; i2c/i2cwrites.c     if((!SSPSTATbits.R_W) && ( !SSPSTATbits.BF )) {
00008E B400           00309         BTFSC   _SSPSTATbits, 2
000090 D000           00310         BRA     _00119_DS_
                      00311 ; ;ic:48:       if iTemp30 [k48 lr47:48 so:0]{ ia0 a2p0 re0 rm0 nos0 ru0 dp0}{volatile-unsigned-bitfield {2,1} fixed}[bad ] != 0 goto _ifend_3($15)
                      00312 ; ;ic:49:       iTemp31 [k49 lr49:50 so:0]{ ia0 a2p0 re0 rm1 nos0 ru0 dp0}{volatile-unsigned-bitfield {0,1} near* fixed}[remat] = &[_SSPSTATbits [k18 lr0:0 so:0]{ ia0 a2p0 re0 rm0 nos0 ru0 dp0}{volatile-struct __00000118 fixed}]
                      00313 ; ;ic:50:       iTemp32 [k51 lr50:51 so:0]{ ia0 a2p0 re0 rm1 nos0 ru0 dp0}{volatile-unsigned-bitfield {0,1} near* fixed}[remat] := iTemp31 [k49 lr49:50 so:0]{ ia0 a2p0 re0 rm1 nos0 ru0 dp0}{volatile-unsigned-bitfield {0,1} near* fixed}[remat]
                      00314 ; ;ic:51:       iTemp33 [k52 lr51:52 so:0]{ ia0 a2p0 re0 rm0 nos0 ru0 dp0}{volatile-unsigned-bitfield {0,1} fixed}[bad ] = @[iTemp32 [k51 lr50:51 so:0]{ ia1 a2p0 re0 rm1 nos0 ru0 dp0}{volatile-unsigned-bitfield {0,1} near* fixed}[remat] + 0x0 {const-unsigned-char literal}]
000092 B000           00315         BTFSC   _SSPSTATbits, 0
000094 D000           00316         BRA     _00119_DS_
                      00317 ; ;ic:52:       if iTemp33 [k52 lr51:52 so:0]{ ia0 a2p0 re0 rm0 nos0 ru0 dp0}{volatile-unsigned-bitfield {0,1} fixed}[bad ] != 0 goto _ifend_3($15)
                      00318 ; ;ic:53:       ret 0xfffffffe {const-char literal}
gpasm-0.14.1 (Aug 18 2017)   libio18f2220_a-i2cwrites.asm8-18-2017  19:27:53          PAGE  7


LOC  OBJECT CODE     LINE SOURCE TEXT
  VALUE

                      00319 ;       .line   50; i2c/i2cwrites.c     return (-2);
000096 0EFE           00320         MOVLW   0xfe
000098 D000           00321         BRA     _00123_DS_
                      00322 ; ;ic:54:  _ifend_3($15) :
                      00323 ; ;ic:55:       iTemp35 [k54 lr3:56 so:0]{ ia0 a2p0 re0 rm0 nos0 ru0 dp0}{unsigned-char generic* fixed}[r0x00 r0x01 r0x02 ] = iTemp35 [k54 lr3:56 so:0]{ ia0 a2p0 re0 rm0 nos0 ru0 dp0}{unsigned-char generic* fixed}[r0x00 r0x01 r0x02 ] + 0x1 {const-unsigned-char literal}
00009A                00324 _00119_DS_:
                      00325 ;       .line   54; i2c/i2cwrites.c     ptr++;
00009A 2A00           00326         INCF    r0x00, F
00009C E300           00327         BNC     _00120_DS_
00009E 4A00           00328         INFSNZ  r0x01, F
0000A0 2A00           00329         INCF    r0x02, F
                      00330 ; ;ic:56:        goto _whilecontinue_0($16)
0000A2                00331 _00148_DS_:
0000A2 D000           00332         BRA     _00120_DS_
                      00333 ; ;ic:57:  _whilebreak_0($18) :
                      00334 ; ;ic:58:       ret 0x0 {const-unsigned-char literal}
0000A4                00335 _00122_DS_:
                      00336 ;       .line   57; i2c/i2cwrites.c     return 0;
0000A4 6AE8           00337         CLRF    WREG
                      00338 ; ;ic:59:  _return($19) :
                      00339 ; ;ic:60:       eproc _i2c_writestr [k1 lr0:0 so:0]{ ia0 a2p0 re0 rm0 nos0 ru0 dp0}{char function ( unsigned-char generic* fixed) fixed}
0000A6                00340 _00123_DS_:
0000A6 CFE4 F000      00341         MOVFF   PREINC1, r0x04
0000AA CFE4 F000      00342         MOVFF   PREINC1, r0x03
0000AE CFE4 F000      00343         MOVFF   PREINC1, r0x02
0000B2 CFE4 F000      00344         MOVFF   PREINC1, r0x01
0000B6 CFE4 F000      00345         MOVFF   PREINC1, r0x00
0000BA CFE4 FFD9      00346         MOVFF   PREINC1, FSR2L
0000BE 0012           00347         RETURN  
                      00348 
                      00349 
                      00350 
                      00351 ; Statistics:
                      00352 ; code size:      192 (0x00c0) bytes ( 0.15%)
                      00353 ;                  96 (0x0060) words
                      00354 ; udata size:       0 (0x0000) bytes ( 0.00%)
                      00355 ; access size:      5 (0x0005) bytes
                      00356 
                      00357 
                      00358         end
gpasm-0.14.1 (Aug 18 2017)   libio18f2220_a-i2cwrites.asm8-18-2017  19:27:53          PAGE  8


SYMBOL TABLE
  LABEL                             VALUE

FSR0L                             00000FE9
FSR1L                             00000FE1
FSR2L                             00000FD9
PLUSW2                            00000FDB
POSTDEC1                          00000FE5
POSTINC1                          00000FE6
PREINC1                           00000FE4
PRODL                             00000FF3
STATUS                            00000FD8
WREG                              00000FE8
_00107_DS_                        0000005A
_00111_DS_                        0000008A
_00118_DS_                        00000076
_00119_DS_                        0000009A
_00120_DS_                        0000002E
_00122_DS_                        000000A4
_00123_DS_                        000000A6
_00148_DS_                        000000A2
_ADCON0                           00000000
_ADCON0bits                       00000000
_ADCON1                           00000000
_ADCON1bits                       00000000
_ADCON2                           00000000
_ADCON2bits                       00000000
_ADRESH                           00000000
_ADRESL                           00000000
_BSR                              00000000
_CCP1CON                          00000000
_CCP1CONbits                      00000000
_CCP2CON                          00000000
_CCP2CONbits                      00000000
_CCPR1H                           00000000
_CCPR1L                           00000000
_CCPR2H                           00000000
_CCPR2L                           00000000
_CMCON                            00000000
_CMCONbits                        00000000
_CVRCON                           00000000
_CVRCONbits                       00000000
_EEADR                            00000000
_EECON1                           00000000
_EECON1bits                       00000000
_EECON2                           00000000
_EEDATA                           00000000
_FSR0H                            00000000
_FSR0L                            00000000
_FSR1H                            00000000
_FSR1L                            00000000
_FSR2H                            00000000
_FSR2L                            00000000
_INDF0                            00000000
_INDF1                            00000000
_INDF2                            00000000
gpasm-0.14.1 (Aug 18 2017)   libio18f2220_a-i2cwrites.asm8-18-2017  19:27:53          PAGE  9


SYMBOL TABLE
  LABEL                             VALUE 

_INTCON                           00000000
_INTCON2                          00000000
_INTCON2bits                      00000000
_INTCON3                          00000000
_INTCON3bits                      00000000
_INTCONbits                       00000000
_IPR1                             00000000
_IPR1bits                         00000000
_IPR2                             00000000
_IPR2bits                         00000000
_LATA                             00000000
_LATAbits                         00000000
_LATB                             00000000
_LATBbits                         00000000
_LATC                             00000000
_LATCbits                         00000000
_LVDCON                           00000000
_LVDCONbits                       00000000
_OSCCON                           00000000
_OSCCONbits                       00000000
_OSCTUNE                          00000000
_OSCTUNEbits                      00000000
_PCL                              00000000
_PCLATH                           00000000
_PCLATU                           00000000
_PIE1                             00000000
_PIE1bits                         00000000
_PIE2                             00000000
_PIE2bits                         00000000
_PIR1                             00000000
_PIR1bits                         00000000
_PIR2                             00000000
_PIR2bits                         00000000
_PLUSW0                           00000000
_PLUSW1                           00000000
_PLUSW2                           00000000
_PORTA                            00000000
_PORTAbits                        00000000
_PORTB                            00000000
_PORTBbits                        00000000
_PORTC                            00000000
_PORTCbits                        00000000
_POSTDEC0                         00000000
_POSTDEC1                         00000000
_POSTDEC2                         00000000
_POSTINC0                         00000000
_POSTINC1                         00000000
_POSTINC2                         00000000
_PR2                              00000000
_PREINC0                          00000000
_PREINC1                          00000000
_PREINC2                          00000000
_PRODH                            00000000
gpasm-0.14.1 (Aug 18 2017)   libio18f2220_a-i2cwrites.asm8-18-2017  19:27:53          PAGE 10


SYMBOL TABLE
  LABEL                             VALUE 

_PRODL                            00000000
_RCON                             00000000
_RCONbits                         00000000
_RCREG                            00000000
_RCSTA                            00000000
_RCSTAbits                        00000000
_SPBRG                            00000000
_SSPADD                           00000000
_SSPBUF                           00000000
_SSPCON1                          00000000
_SSPCON1bits                      00000000
_SSPCON2                          00000000
_SSPCON2bits                      00000000
_SSPSTAT                          00000000
_SSPSTATbits                      00000000
_STATUS                           00000000
_STATUSbits                       00000000
_STKPTR                           00000000
_STKPTRbits                       00000000
_T0CON                            00000000
_T0CONbits                        00000000
_T1CON                            00000000
_T1CONbits                        00000000
_T2CON                            00000000
_T2CONbits                        00000000
_T3CON                            00000000
_T3CONbits                        00000000
_TABLAT                           00000000
_TBLPTRH                          00000000
_TBLPTRL                          00000000
_TBLPTRU                          00000000
_TMR0H                            00000000
_TMR0L                            00000000
_TMR1H                            00000000
_TMR1L                            00000000
_TMR2                             00000000
_TMR3H                            00000000
_TMR3L                            00000000
_TOSH                             00000000
_TOSL                             00000000
_TOSU                             00000000
_TRISA                            00000000
_TRISAbits                        00000000
_TRISB                            00000000
_TRISBbits                        00000000
_TRISC                            00000000
_TRISCbits                        00000000
_TXREG                            00000000
_TXSTA                            00000000
_TXSTAbits                        00000000
_WDTCON                           00000000
_WDTCONbits                       00000000
_WREG                             00000000
gpasm-0.14.1 (Aug 18 2017)   libio18f2220_a-i2cwrites.asm8-18-2017  19:27:53          PAGE 11


SYMBOL TABLE
  LABEL                             VALUE 

__18F2220                         00000001
__gptrget1                        00000000
_i2c_writechar                    00000000
_i2c_writestr                     00000000
r0x00                             00000000
r0x01                             00000001
r0x02                             00000002
r0x03                             00000003
r0x04                             00000004

Errors   :     0
Warnings :     0 reported,     0 suppressed
Messages :     0 reported,     0 suppressed

