gpasm-0.14.1 (Aug 18 2017)   libio18f1230_a-adcopen.asm8-18-2017  19:25:25          PAGE  1


LOC  OBJECT CODE     LINE SOURCE TEXT
  VALUE

                      00001 ;--------------------------------------------------------
                      00002 ; File Created by SDCC : free open source ANSI-C Compiler
                      00003 ; Version 3.2.0 #8004 (Aug 18 2017) (MINGW32)
                      00004 ; This file was generated Fri Aug 18 19:25:25 2017
                      00005 ;--------------------------------------------------------
                      00006 ; PIC16 port for the Microchip 16-bit core micros
                      00007 ;--------------------------------------------------------
                      00008         list    p=18f1230
                      00009 
                      00010         radix dec
                      00011 
                      00012 ;--------------------------------------------------------
                      00013 ; public variables in this module
                      00014 ;--------------------------------------------------------
                      00015         global  _adc_open
                      00016 
                      00017 ;--------------------------------------------------------
                      00018 ; extern variables in this module
                      00019 ;--------------------------------------------------------
                      00020         extern  _PORTAbits
                      00021         extern  _PORTBbits
                      00022         extern  _OVDCONSbits
                      00023         extern  _OVDCONDbits
                      00024         extern  _DTCONbits
                      00025         extern  _PWMCON1bits
                      00026         extern  _PWMCON0bits
                      00027         extern  _LATAbits
                      00028         extern  _LATBbits
                      00029         extern  _FLTCONFIGbits
                      00030         extern  _DDRAbits
                      00031         extern  _TRISAbits
                      00032         extern  _DDRBbits
                      00033         extern  _TRISBbits
                      00034         extern  _PTCON1bits
                      00035         extern  _PTCON0bits
                      00036         extern  _OSCTUNEbits
                      00037         extern  _PIE1bits
                      00038         extern  _PIR1bits
                      00039         extern  _IPR1bits
                      00040         extern  _PIE2bits
                      00041         extern  _PIR2bits
                      00042         extern  _IPR2bits
                      00043         extern  _PIE3bits
                      00044         extern  _PIR3bits
                      00045         extern  _IPR3bits
                      00046         extern  _EECON1bits
                      00047         extern  _RCSTAbits
                      00048         extern  _TXSTAbits
                      00049         extern  _CMCONbits
                      00050         extern  _CVRCONbits
                      00051         extern  _BAUDCONbits
                      00052         extern  _BAUDCTLbits
                      00053         extern  _ADCON2bits
gpasm-0.14.1 (Aug 18 2017)   libio18f1230_a-adcopen.asm8-18-2017  19:25:25          PAGE  2


LOC  OBJECT CODE     LINE SOURCE TEXT
  VALUE

                      00054         extern  _ADCON1bits
                      00055         extern  _ADCON0bits
                      00056         extern  _T1CONbits
                      00057         extern  _RCONbits
                      00058         extern  _WDTCONbits
                      00059         extern  _LVDCONbits
                      00060         extern  _OSCCONbits
                      00061         extern  _T0CONbits
                      00062         extern  _STATUSbits
                      00063         extern  _INTCON3bits
                      00064         extern  _INTCON2bits
                      00065         extern  _INTCONbits
                      00066         extern  _STKPTRbits
                      00067         extern  _PORTA
                      00068         extern  _PORTB
                      00069         extern  _OVDCONS
                      00070         extern  _OVDCOND
                      00071         extern  _DTCON
                      00072         extern  _PWMCON1
                      00073         extern  _PWMCON0
                      00074         extern  _SEVTCMPH
                      00075         extern  _SEVTCMPL
                      00076         extern  _LATA
                      00077         extern  _LATB
                      00078         extern  _FLTCONFIG
                      00079         extern  _PDC2H
                      00080         extern  _PDC2L
                      00081         extern  _PDC1H
                      00082         extern  _PDC1L
                      00083         extern  _PDC0H
                      00084         extern  _PDC0L
                      00085         extern  _DDRA
                      00086         extern  _TRISA
                      00087         extern  _DDRB
                      00088         extern  _TRISB
                      00089         extern  _PTPERH
                      00090         extern  _PTPERL
                      00091         extern  _PTMRH
                      00092         extern  _PTMRL
                      00093         extern  _PTCON1
                      00094         extern  _PTCON0
                      00095         extern  _OSCTUNE
                      00096         extern  _PIE1
                      00097         extern  _PIR1
                      00098         extern  _IPR1
                      00099         extern  _PIE2
                      00100         extern  _PIR2
                      00101         extern  _IPR2
                      00102         extern  _PIE3
                      00103         extern  _PIR3
                      00104         extern  _IPR3
                      00105         extern  _EECON1
                      00106         extern  _EECON2
gpasm-0.14.1 (Aug 18 2017)   libio18f1230_a-adcopen.asm8-18-2017  19:25:25          PAGE  3


LOC  OBJECT CODE     LINE SOURCE TEXT
  VALUE

                      00107         extern  _EEDATA
                      00108         extern  _EEADR
                      00109         extern  _RCSTA
                      00110         extern  _TXSTA
                      00111         extern  _TXREG
                      00112         extern  _RCREG
                      00113         extern  _SPBRG
                      00114         extern  _SPBRGH
                      00115         extern  _CMCON
                      00116         extern  _CVRCON
                      00117         extern  _BAUDCON
                      00118         extern  _BAUDCTL
                      00119         extern  _ADCON2
                      00120         extern  _ADCON1
                      00121         extern  _ADCON0
                      00122         extern  _ADRES
                      00123         extern  _ADRESL
                      00124         extern  _ADRESH
                      00125         extern  _T1CON
                      00126         extern  _TMR1L
                      00127         extern  _TMR1H
                      00128         extern  _RCON
                      00129         extern  _WDTCON
                      00130         extern  _LVDCON
                      00131         extern  _OSCCON
                      00132         extern  _T0CON
                      00133         extern  _TMR0L
                      00134         extern  _TMR0H
                      00135         extern  _STATUS
                      00136         extern  _FSR2L
                      00137         extern  _FSR2H
                      00138         extern  _PLUSW2
                      00139         extern  _PREINC2
                      00140         extern  _POSTDEC2
                      00141         extern  _POSTINC2
                      00142         extern  _INDF2
                      00143         extern  _BSR
                      00144         extern  _FSR1L
                      00145         extern  _FSR1H
                      00146         extern  _PLUSW1
                      00147         extern  _PREINC1
                      00148         extern  _POSTDEC1
                      00149         extern  _POSTINC1
                      00150         extern  _INDF1
                      00151         extern  _WREG
                      00152         extern  _FSR0L
                      00153         extern  _FSR0H
                      00154         extern  _PLUSW0
                      00155         extern  _PREINC0
                      00156         extern  _POSTDEC0
                      00157         extern  _POSTINC0
                      00158         extern  _INDF0
                      00159         extern  _INTCON3
gpasm-0.14.1 (Aug 18 2017)   libio18f1230_a-adcopen.asm8-18-2017  19:25:25          PAGE  4


LOC  OBJECT CODE     LINE SOURCE TEXT
  VALUE

                      00160         extern  _INTCON2
                      00161         extern  _INTCON
                      00162         extern  _PROD
                      00163         extern  _PRODL
                      00164         extern  _PRODH
                      00165         extern  _TABLAT
                      00166         extern  _TBLPTR
                      00167         extern  _TBLPTRL
                      00168         extern  _TBLPTRH
                      00169         extern  _TBLPTRU
                      00170         extern  _PC
                      00171         extern  _PCL
                      00172         extern  _PCLATH
                      00173         extern  _PCLATU
                      00174         extern  _STKPTR
                      00175         extern  _TOS
                      00176         extern  _TOSL
                      00177         extern  _TOSH
                      00178         extern  _TOSU
                      00179 
                      00180 ;--------------------------------------------------------
                      00181 ;       Equates to used internal registers
                      00182 ;--------------------------------------------------------
  00000FE8            00183 WREG    equ     0xfe8
  00000FE1            00184 FSR1L   equ     0xfe1
  00000FD9            00185 FSR2L   equ     0xfd9
  00000FE5            00186 POSTDEC1        equ     0xfe5
  00000FE4            00187 PREINC1 equ     0xfe4
  00000FDB            00188 PLUSW2  equ     0xfdb
                      00189 
                      00190 
                      00191 ; Internal registers
                      00192 .registers      udata_ovr       0x0000
000000                00193 r0x00   res     1
000001                00194 r0x01   res     1
000002                00195 r0x02   res     1
000003                00196 r0x03   res     1
                      00197 
                      00198 ;--------------------------------------------------------
                      00199 ; global & static initialisations
                      00200 ;--------------------------------------------------------
                      00201 ; I code from now on!
                      00202 ; ; Starting pCode block
                      00203 ; ;ic:1:  _entry($4) :
                      00204 ; ;ic:2:        proc _adc_open [k1 lr0:0 so:0]{ ia0 a2p0 re0 rm0 nos0 ru0 dp0}{void function ( unsigned-char fixed, unsigned-char fixed, unsigned-char fixed, unsigned-char fixed) fixed}
                      00205 S_adcopen__adc_open     code
000000                00206 _adc_open:
                      00207 ;       .line   42; adc/adcopen.c       adc_open(unsigned char channel, unsigned char fosc, sdcc_pcfg_t pcfg, unsigned char config)
000000 CFD9 FFE5      00208         MOVFF   FSR2L, POSTDEC1
000004 CFE1 FFD9      00209         MOVFF   FSR1L, FSR2L
000008 C000 FFE5      00210         MOVFF   r0x00, POSTDEC1
00000C C000 FFE5      00211         MOVFF   r0x01, POSTDEC1
000010 C000 FFE5      00212         MOVFF   r0x02, POSTDEC1
gpasm-0.14.1 (Aug 18 2017)   libio18f1230_a-adcopen.asm8-18-2017  19:25:25          PAGE  5


LOC  OBJECT CODE     LINE SOURCE TEXT
  VALUE

000014 C000 FFE5      00213         MOVFF   r0x03, POSTDEC1
                      00214 ; ;ic:3: iTemp0 [k2 lr3:8 so:0]{ ia0 a2p0 re1 rm0 nos0 ru0 dp0}{unsigned-char fixed}{ sir@ _adc_open_channel_1_7}[r0x00 ] = recv _adc_open [k1 lr0:0 so:0]{ ia0 a2p0 re0 rm0 nos0 ru0 dp0}{void function ( unsigned-char fixed, unsigned-char fixed, unsigned-char fixed, unsigned-char fixed) fixed}
000018 0E02           00215         MOVLW   0x02
00001A CFDB F000      00216         MOVFF   PLUSW2, r0x00
                      00217 ; ;ic:4: iTemp1 [k4 lr4:13 so:0]{ ia0 a2p0 re1 rm0 nos0 ru0 dp0}{unsigned-char fixed}{ sir@ _adc_open_fosc_1_7}[r0x01 ] = recv _adc_open [k1 lr0:0 so:0]{ ia0 a2p0 re0 rm0 nos0 ru0 dp0}{void function ( unsigned-char fixed, unsigned-char fixed, unsigned-char fixed, unsigned-char fixed) fixed}
00001E 0E03           00218         MOVLW   0x03
000020 CFDB F000      00219         MOVFF   PLUSW2, r0x01
                      00220 ; ;ic:5: iTemp2 [k6 lr5:10 so:0]{ ia0 a2p0 re1 rm0 nos0 ru0 dp0}{unsigned-char fixed}{ sir@ _adc_open_pcfg_1_7}[r0x02 ] = recv _adc_open [k1 lr0:0 so:0]{ ia0 a2p0 re0 rm0 nos0 ru0 dp0}{void function ( unsigned-char fixed, unsigned-char fixed, unsigned-char fixed, unsigned-char fixed) fixed}
000024 0E04           00221         MOVLW   0x04
000026 CFDB F000      00222         MOVFF   PLUSW2, r0x02
                      00223 ; ;ic:6: iTemp3 [k8 lr6:16 so:0]{ ia0 a2p0 re1 rm0 nos0 ru0 dp0}{unsigned-char fixed}{ sir@ _adc_open_config_1_7}[r0x03 ] = recv _adc_open [k1 lr0:0 so:0]{ ia0 a2p0 re0 rm0 nos0 ru0 dp0}{void function ( unsigned-char fixed, unsigned-char fixed, unsigned-char fixed, unsigned-char fixed) fixed}
00002A 0E05           00224         MOVLW   0x05
00002C CFDB F000      00225         MOVFF   PLUSW2, r0x03
                      00226 ; ;ic:7:        _ADCON0 [k10 lr0:0 so:0]{ ia1 a2p0 re0 rm0 nos0 ru0 dp0}{volatile-unsigned-char sfr} := 0x0 {const-unsigned-char literal}
                      00227 ;       .line   48; adc/adcopen.c       ADCON0 = 0;
000030 6A00           00228         CLRF    _ADCON0
                      00229 ; ;ic:8:        iTemp4 [k11 lr8:9 so:0]{ ia0 a2p0 re0 rm0 nos0 ru0 dp0}{unsigned-char register}[r0x00 ] = iTemp0 [k2 lr3:8 so:0]{ ia0 a2p0 re1 rm0 nos0 ru0 dp0}{unsigned-char fixed}{ sir@ _adc_open_channel_1_7}[r0x00 ] & 0x3 {const-unsigned-char literal}
                      00230 ;       .line   61; adc/adcopen.c       ADCON0 = ((channel & 0x03) << 2);
000032 0E03           00231         MOVLW   0x03
000034 1600           00232         ANDWF   r0x00, F
                      00233 ; ;ic:9:        _ADCON0 [k10 lr0:0 so:0]{ ia1 a2p0 re0 rm0 nos0 ru0 dp0}{volatile-unsigned-char sfr} = iTemp4 [k11 lr8:9 so:0]{ ia0 a2p0 re0 rm0 nos0 ru0 dp0}{unsigned-char register}[r0x00 ] << 0x2 {const-unsigned-char literal}
000036 4400           00234         RLNCF   r0x00, W
000038 44E8           00235         RLNCF   WREG, W
00003A 0BFC           00236         ANDLW   0xfc
00003C 6E00           00237         MOVWF   _ADCON0
                      00238 ; ;ic:10:       iTemp6 [k14 lr10:12 so:0]{ ia0 a2p0 re0 rm0 nos0 ru0 dp0}{unsigned-char register}[r0x02 ] = iTemp2 [k6 lr5:10 so:0]{ ia0 a2p0 re1 rm0 nos0 ru0 dp0}{unsigned-char fixed}{ sir@ _adc_open_pcfg_1_7}[r0x02 ] & 0xf {const-unsigned-char literal}
                      00239 ;       .line   62; adc/adcopen.c       ADCON1 = (pcfg & 0x0f) | (config & ADC_VCFG_VREF);
00003E 0E0F           00240         MOVLW   0x0f
000040 1600           00241         ANDWF   r0x02, F
                      00242 ; ;ic:11:       iTemp7 [k15 lr11:12 so:0]{ ia0 a2p0 re0 rm0 nos0 ru0 dp0}{unsigned-char register}[r0x00 ] = iTemp3 [k8 lr6:16 so:0]{ ia0 a2p0 re1 rm0 nos0 ru0 dp0}{unsigned-char fixed}{ sir@ _adc_open_config_1_7}[r0x03 ] & 0x10 {const-unsigned-char literal}
000042 0E10           00243         MOVLW   0x10
000044 1400           00244         ANDWF   r0x03, W
                      00245 ; #     MOVWF   r0x00
                      00246 ; #;;ic:12:     _ADCON1 [k13 lr0:0 so:0]{ ia1 a2p0 re0 rm0 nos0 ru0 dp0}{volatile-unsigned-char sfr} = iTemp6 [k14 lr10:12 so:0]{ ia0 a2p0 re0 rm0 nos0 ru0 dp0}{unsigned-char register}[r0x02 ] | iTemp7 [k15 lr11:12 so:0]{ ia0 a2p0 re0 rm0 nos0 ru0 dp0}{unsigned-char register}[r0x00 ]
                      00247 ; #     MOVF    r0x00, W
000046 1000           00248         IORWF   r0x02, W
000048 6E00           00249         MOVWF   _ADCON1
                      00250 ; ;ic:13:       iTemp9 [k18 lr13:15 so:0]{ ia0 a2p0 re0 rm0 nos0 ru0 dp0}{unsigned-char register}[r0x01 ] = iTemp1 [k4 lr4:13 so:0]{ ia0 a2p0 re1 rm0 nos0 ru0 dp0}{unsigned-char fixed}{ sir@ _adc_open_fosc_1_7}[r0x01 ] & 0x7f {const-unsigned-char literal}
                      00251 ;       .line   63; adc/adcopen.c       ADCON2 = (fosc & 0x7f) | (config & ADC_FRM_RJUST);
00004A 9E00           00252         BCF     r0x01, 7
                      00253 ; ;ic:14:       iTemp10 [k19 lr14:15 so:0]{ ia0 a2p0 re0 rm0 nos0 ru0 dp0}{unsigned-char register}[r0x00 ] = iTemp3 [k8 lr6:16 so:0]{ ia0 a2p0 re1 rm0 nos0 ru0 dp0}{unsigned-char fixed}{ sir@ _adc_open_config_1_7}[r0x03 ] & 0x80 {const-unsigned-char literal}
00004C 0E80           00254         MOVLW   0x80
00004E 1400           00255         ANDWF   r0x03, W
                      00256 ; #     MOVWF   r0x00
                      00257 ; #;;ic:15:     _ADCON2 [k17 lr0:0 so:0]{ ia1 a2p0 re0 rm0 nos0 ru0 dp0}{volatile-unsigned-char sfr} = iTemp9 [k18 lr13:15 so:0]{ ia0 a2p0 re0 rm0 nos0 ru0 dp0}{unsigned-char register}[r0x01 ] | iTemp10 [k19 lr14:15 so:0]{ ia0 a2p0 re0 rm0 nos0 ru0 dp0}{unsigned-char register}[r0x00 ]
                      00258 ; #     MOVF    r0x00, W
000050 1000           00259         IORWF   r0x01, W
000052 6E00           00260         MOVWF   _ADCON2
                      00261 ; ;ic:16:       iTemp12 [k21 lr16:17 so:0]{ ia0 a2p0 re0 rm0 nos0 ru0 dp0}{unsigned-char register} = iTemp3 [k8 lr6:16 so:0]{ ia0 a2p0 re1 rm0 nos0 ru0 dp0}{unsigned-char fixed}{ sir@ _adc_open_config_1_7}[r0x03 ] & 0x40 {const-unsigned-char literal}
                      00262 ;       .line   103; adc/adcopen.c      if (config & ADC_INT_ON) {
000054 AC00           00263         BTFSS   r0x03, 6
000056 D000           00264         BRA     _00106_DS_
                      00265 ; ;ic:17:       if iTemp12 [k21 lr16:17 so:0]{ ia0 a2p0 re0 rm0 nos0 ru0 dp0}{unsigned-char register} == 0 goto _iffalse_0($2)
gpasm-0.14.1 (Aug 18 2017)   libio18f1230_a-adcopen.asm8-18-2017  19:25:25          PAGE  6


LOC  OBJECT CODE     LINE SOURCE TEXT
  VALUE

                      00266 ; ;ic:18:       iTemp13 [k23 lr18:19 so:0]{ ia0 a2p0 re0 rm1 nos0 ru0 dp0}{volatile-unsigned-bitfield {6,1} near* fixed}[remat] = &[_PIR1bits [k22 lr0:0 so:0]{ ia0 a2p0 re0 rm0 nos0 ru0 dp0}{volatile-struct __00000106 fixed}]
                      00267 ; ;ic:19:       iTemp14 [k25 lr19:20 so:0]{ ia0 a2p0 re0 rm1 nos0 ru0 dp0}{volatile-unsigned-bitfield {6,1} near* fixed}[remat] := iTemp13 [k23 lr18:19 so:0]{ ia0 a2p0 re0 rm1 nos0 ru0 dp0}{volatile-unsigned-bitfield {6,1} near* fixed}[remat]
                      00268 ; ;ic:20:       *(iTemp14 [k25 lr19:20 so:0]{ ia1 a2p0 re0 rm1 nos0 ru0 dp0}{volatile-unsigned-bitfield {6,1} near* fixed}[remat]) := 0x0 {const-unsigned-char literal}
                      00269 ;       .line   104; adc/adcopen.c      PIR1bits.ADIF = 0;
000058 9C00           00270         BCF     _PIR1bits, 6
                      00271 ; ;ic:21:       iTemp15 [k27 lr21:22 so:0]{ ia0 a2p0 re0 rm1 nos0 ru0 dp0}{volatile-unsigned-bitfield {6,1} near* fixed}[remat] = &[_PIE1bits [k26 lr0:0 so:0]{ ia0 a2p0 re0 rm0 nos0 ru0 dp0}{volatile-struct __00000103 fixed}]
                      00272 ; ;ic:22:       iTemp16 [k29 lr22:23 so:0]{ ia0 a2p0 re0 rm1 nos0 ru0 dp0}{volatile-unsigned-bitfield {6,1} near* fixed}[remat] := iTemp15 [k27 lr21:22 so:0]{ ia0 a2p0 re0 rm1 nos0 ru0 dp0}{volatile-unsigned-bitfield {6,1} near* fixed}[remat]
                      00273 ; ;ic:23:       *(iTemp16 [k29 lr22:23 so:0]{ ia1 a2p0 re0 rm1 nos0 ru0 dp0}{volatile-unsigned-bitfield {6,1} near* fixed}[remat]) := 0x1 {const-unsigned-char literal}
                      00274 ;       .line   105; adc/adcopen.c      PIE1bits.ADIE = 1;
00005A 8C00           00275         BSF     _PIE1bits, 6
                      00276 ; ;ic:24:       iTemp17 [k31 lr24:25 so:0]{ ia0 a2p0 re0 rm1 nos0 ru0 dp0}{volatile-unsigned-bitfield {6,1} near* fixed}[remat] = &[_INTCONbits [k30 lr0:0 so:0]{ ia0 a2p0 re0 rm0 nos0 ru0 dp0}{volatile-struct __00000334 fixed}]
                      00277 ; ;ic:25:       iTemp18 [k33 lr25:26 so:0]{ ia0 a2p0 re0 rm1 nos0 ru0 dp0}{volatile-unsigned-bitfield {6,1} near* fixed}[remat] := iTemp17 [k31 lr24:25 so:0]{ ia0 a2p0 re0 rm1 nos0 ru0 dp0}{volatile-unsigned-bitfield {6,1} near* fixed}[remat]
                      00278 ; ;ic:26:       *(iTemp18 [k33 lr25:26 so:0]{ ia1 a2p0 re0 rm1 nos0 ru0 dp0}{volatile-unsigned-bitfield {6,1} near* fixed}[remat]) := 0x1 {const-unsigned-char literal}
                      00279 ;       .line   106; adc/adcopen.c      INTCONbits.PEIE = 1;
00005C 8C00           00280         BSF     _INTCONbits, 6
                      00281 ; ;ic:27:  _iffalse_0($2) :
                      00282 ; ;ic:28:       iTemp19 [k35 lr28:29 so:0]{ ia0 a2p0 re0 rm1 nos0 ru0 dp0}{volatile-unsigned-bitfield {0,1} near* fixed}[remat] = &[_ADCON0bits [k34 lr0:0 so:0]{ ia0 a2p0 re0 rm0 nos0 ru0 dp0}{volatile-struct __00000222 fixed}]
                      00283 ; ;ic:29:       iTemp20 [k37 lr29:30 so:0]{ ia0 a2p0 re0 rm1 nos0 ru0 dp0}{volatile-unsigned-bitfield {0,1} near* fixed}[remat] := iTemp19 [k35 lr28:29 so:0]{ ia0 a2p0 re0 rm1 nos0 ru0 dp0}{volatile-unsigned-bitfield {0,1} near* fixed}[remat]
                      00284 ; ;ic:30:       *(iTemp20 [k37 lr29:30 so:0]{ ia1 a2p0 re0 rm1 nos0 ru0 dp0}{volatile-unsigned-bitfield {0,1} near* fixed}[remat]) := 0x1 {const-unsigned-char literal}
00005E                00285 _00106_DS_:
                      00286 ;       .line   110; adc/adcopen.c      ADCON0bits.ADON = 1;
00005E 8000           00287         BSF     _ADCON0bits, 0
                      00288 ; ;ic:31:  _return($3) :
                      00289 ; ;ic:32:       eproc _adc_open [k1 lr0:0 so:0]{ ia0 a2p0 re0 rm0 nos0 ru0 dp0}{void function ( unsigned-char fixed, unsigned-char fixed, unsigned-char fixed, unsigned-char fixed) fixed}
000060 CFE4 F000      00290         MOVFF   PREINC1, r0x03
000064 CFE4 F000      00291         MOVFF   PREINC1, r0x02
000068 CFE4 F000      00292         MOVFF   PREINC1, r0x01
00006C CFE4 F000      00293         MOVFF   PREINC1, r0x00
000070 CFE4 FFD9      00294         MOVFF   PREINC1, FSR2L
000074 0012           00295         RETURN  
                      00296 
                      00297 
                      00298 
                      00299 ; Statistics:
                      00300 ; code size:      118 (0x0076) bytes ( 0.09%)
                      00301 ;                  59 (0x003b) words
                      00302 ; udata size:       0 (0x0000) bytes ( 0.00%)
                      00303 ; access size:      4 (0x0004) bytes
                      00304 
                      00305 
                      00306         end
gpasm-0.14.1 (Aug 18 2017)   libio18f1230_a-adcopen.asm8-18-2017  19:25:25          PAGE  7


SYMBOL TABLE
  LABEL                             VALUE

FSR1L                             00000FE1
FSR2L                             00000FD9
PLUSW2                            00000FDB
POSTDEC1                          00000FE5
PREINC1                           00000FE4
WREG                              00000FE8
_00106_DS_                        0000005E
_ADCON0                           00000000
_ADCON0bits                       00000000
_ADCON1                           00000000
_ADCON1bits                       00000000
_ADCON2                           00000000
_ADCON2bits                       00000000
_ADRES                            00000000
_ADRESH                           00000000
_ADRESL                           00000000
_BAUDCON                          00000000
_BAUDCONbits                      00000000
_BAUDCTL                          00000000
_BAUDCTLbits                      00000000
_BSR                              00000000
_CMCON                            00000000
_CMCONbits                        00000000
_CVRCON                           00000000
_CVRCONbits                       00000000
_DDRA                             00000000
_DDRAbits                         00000000
_DDRB                             00000000
_DDRBbits                         00000000
_DTCON                            00000000
_DTCONbits                        00000000
_EEADR                            00000000
_EECON1                           00000000
_EECON1bits                       00000000
_EECON2                           00000000
_EEDATA                           00000000
_FLTCONFIG                        00000000
_FLTCONFIGbits                    00000000
_FSR0H                            00000000
_FSR0L                            00000000
_FSR1H                            00000000
_FSR1L                            00000000
_FSR2H                            00000000
_FSR2L                            00000000
_INDF0                            00000000
_INDF1                            00000000
_INDF2                            00000000
_INTCON                           00000000
_INTCON2                          00000000
_INTCON2bits                      00000000
_INTCON3                          00000000
_INTCON3bits                      00000000
_INTCONbits                       00000000
gpasm-0.14.1 (Aug 18 2017)   libio18f1230_a-adcopen.asm8-18-2017  19:25:25          PAGE  8


SYMBOL TABLE
  LABEL                             VALUE 

_IPR1                             00000000
_IPR1bits                         00000000
_IPR2                             00000000
_IPR2bits                         00000000
_IPR3                             00000000
_IPR3bits                         00000000
_LATA                             00000000
_LATAbits                         00000000
_LATB                             00000000
_LATBbits                         00000000
_LVDCON                           00000000
_LVDCONbits                       00000000
_OSCCON                           00000000
_OSCCONbits                       00000000
_OSCTUNE                          00000000
_OSCTUNEbits                      00000000
_OVDCOND                          00000000
_OVDCONDbits                      00000000
_OVDCONS                          00000000
_OVDCONSbits                      00000000
_PC                               00000000
_PCL                              00000000
_PCLATH                           00000000
_PCLATU                           00000000
_PDC0H                            00000000
_PDC0L                            00000000
_PDC1H                            00000000
_PDC1L                            00000000
_PDC2H                            00000000
_PDC2L                            00000000
_PIE1                             00000000
_PIE1bits                         00000000
_PIE2                             00000000
_PIE2bits                         00000000
_PIE3                             00000000
_PIE3bits                         00000000
_PIR1                             00000000
_PIR1bits                         00000000
_PIR2                             00000000
_PIR2bits                         00000000
_PIR3                             00000000
_PIR3bits                         00000000
_PLUSW0                           00000000
_PLUSW1                           00000000
_PLUSW2                           00000000
_PORTA                            00000000
_PORTAbits                        00000000
_PORTB                            00000000
_PORTBbits                        00000000
_POSTDEC0                         00000000
_POSTDEC1                         00000000
_POSTDEC2                         00000000
_POSTINC0                         00000000
gpasm-0.14.1 (Aug 18 2017)   libio18f1230_a-adcopen.asm8-18-2017  19:25:25          PAGE  9


SYMBOL TABLE
  LABEL                             VALUE 

_POSTINC1                         00000000
_POSTINC2                         00000000
_PREINC0                          00000000
_PREINC1                          00000000
_PREINC2                          00000000
_PROD                             00000000
_PRODH                            00000000
_PRODL                            00000000
_PTCON0                           00000000
_PTCON0bits                       00000000
_PTCON1                           00000000
_PTCON1bits                       00000000
_PTMRH                            00000000
_PTMRL                            00000000
_PTPERH                           00000000
_PTPERL                           00000000
_PWMCON0                          00000000
_PWMCON0bits                      00000000
_PWMCON1                          00000000
_PWMCON1bits                      00000000
_RCON                             00000000
_RCONbits                         00000000
_RCREG                            00000000
_RCSTA                            00000000
_RCSTAbits                        00000000
_SEVTCMPH                         00000000
_SEVTCMPL                         00000000
_SPBRG                            00000000
_SPBRGH                           00000000
_STATUS                           00000000
_STATUSbits                       00000000
_STKPTR                           00000000
_STKPTRbits                       00000000
_T0CON                            00000000
_T0CONbits                        00000000
_T1CON                            00000000
_T1CONbits                        00000000
_TABLAT                           00000000
_TBLPTR                           00000000
_TBLPTRH                          00000000
_TBLPTRL                          00000000
_TBLPTRU                          00000000
_TMR0H                            00000000
_TMR0L                            00000000
_TMR1H                            00000000
_TMR1L                            00000000
_TOS                              00000000
_TOSH                             00000000
_TOSL                             00000000
_TOSU                             00000000
_TRISA                            00000000
_TRISAbits                        00000000
_TRISB                            00000000
gpasm-0.14.1 (Aug 18 2017)   libio18f1230_a-adcopen.asm8-18-2017  19:25:25          PAGE 10


SYMBOL TABLE
  LABEL                             VALUE 

_TRISBbits                        00000000
_TXREG                            00000000
_TXSTA                            00000000
_TXSTAbits                        00000000
_WDTCON                           00000000
_WDTCONbits                       00000000
_WREG                             00000000
__18F1230                         00000001
_adc_open                         00000000
r0x00                             00000000
r0x01                             00000001
r0x02                             00000002
r0x03                             00000003

Errors   :     0
Warnings :     0 reported,     0 suppressed
Messages :     0 reported,     0 suppressed

