gpasm-0.14.1 (Aug 18 2017)   libio18f14k50_a-adcopen.asm8-18-2017  19:26:59          PAGE  1


LOC  OBJECT CODE     LINE SOURCE TEXT
  VALUE

                      00001 ;--------------------------------------------------------
                      00002 ; File Created by SDCC : free open source ANSI-C Compiler
                      00003 ; Version 3.2.0 #8004 (Aug 18 2017) (MINGW32)
                      00004 ; This file was generated Fri Aug 18 19:26:59 2017
                      00005 ;--------------------------------------------------------
                      00006 ; PIC16 port for the Microchip 16-bit core micros
                      00007 ;--------------------------------------------------------
                      00008         list    p=18f14k50
                      00009 
                      00010         radix dec
                      00011 
                      00012 ;--------------------------------------------------------
                      00013 ; public variables in this module
                      00014 ;--------------------------------------------------------
                      00015         global  _adc_open
                      00016 
                      00017 ;--------------------------------------------------------
                      00018 ; extern variables in this module
                      00019 ;--------------------------------------------------------
                      00020         extern  _UEP0bits
                      00021         extern  _UEP1bits
                      00022         extern  _UEP2bits
                      00023         extern  _UEP3bits
                      00024         extern  _UEP4bits
                      00025         extern  _UEP5bits
                      00026         extern  _UEP6bits
                      00027         extern  _UEP7bits
                      00028         extern  _UEIEbits
                      00029         extern  _UADDRbits
                      00030         extern  _UFRMLbits
                      00031         extern  _UFRMHbits
                      00032         extern  _UEIRbits
                      00033         extern  _UIEbits
                      00034         extern  _UCFGbits
                      00035         extern  _UIRbits
                      00036         extern  _USTATbits
                      00037         extern  _UCONbits
                      00038         extern  _SRCON0bits
                      00039         extern  _SRCON1bits
                      00040         extern  _CM2CON0bits
                      00041         extern  _CM2CON1bits
                      00042         extern  _CM1CON0bits
                      00043         extern  _SSPMSKbits
                      00044         extern  _SLRCONbits
                      00045         extern  _WPUAbits
                      00046         extern  _WPUBbits
                      00047         extern  _IOCAbits
                      00048         extern  _IOCBbits
                      00049         extern  _ANSELbits
                      00050         extern  _ANSELHbits
                      00051         extern  _PORTAbits
                      00052         extern  _PORTBbits
                      00053         extern  _PORTCbits
gpasm-0.14.1 (Aug 18 2017)   libio18f14k50_a-adcopen.asm8-18-2017  19:26:59          PAGE  2


LOC  OBJECT CODE     LINE SOURCE TEXT
  VALUE

                      00054         extern  _LATAbits
                      00055         extern  _LATBbits
                      00056         extern  _LATCbits
                      00057         extern  _DDRAbits
                      00058         extern  _TRISAbits
                      00059         extern  _DDRBbits
                      00060         extern  _TRISBbits
                      00061         extern  _DDRCbits
                      00062         extern  _TRISCbits
                      00063         extern  _OSCTUNEbits
                      00064         extern  _PIE1bits
                      00065         extern  _PIR1bits
                      00066         extern  _IPR1bits
                      00067         extern  _PIE2bits
                      00068         extern  _PIR2bits
                      00069         extern  _IPR2bits
                      00070         extern  _EECON1bits
                      00071         extern  _EEADRbits
                      00072         extern  _EEADRHbits
                      00073         extern  _RCSTAbits
                      00074         extern  _TXSTAbits
                      00075         extern  _T3CONbits
                      00076         extern  _ECCP1ASbits
                      00077         extern  _PWM1CONbits
                      00078         extern  _BAUDCONbits
                      00079         extern  _BAUDCTLbits
                      00080         extern  _PSTRCONbits
                      00081         extern  _REFCON0bits
                      00082         extern  _VREFCON0bits
                      00083         extern  _REFCON1bits
                      00084         extern  _VREFCON1bits
                      00085         extern  _REFCON2bits
                      00086         extern  _VREFCON2bits
                      00087         extern  _CCP1CONbits
                      00088         extern  _ADCON2bits
                      00089         extern  _ADCON1bits
                      00090         extern  _ADCON0bits
                      00091         extern  _SSPCON2bits
                      00092         extern  _SSPCON1bits
                      00093         extern  _SSPSTATbits
                      00094         extern  _T2CONbits
                      00095         extern  _T1CONbits
                      00096         extern  _RCONbits
                      00097         extern  _WDTCONbits
                      00098         extern  _OSCCON2bits
                      00099         extern  _OSCCONbits
                      00100         extern  _T0CONbits
                      00101         extern  _STATUSbits
                      00102         extern  _INTCON3bits
                      00103         extern  _INTCON2bits
                      00104         extern  _INTCONbits
                      00105         extern  _STKPTRbits
                      00106         extern  _UEP0
gpasm-0.14.1 (Aug 18 2017)   libio18f14k50_a-adcopen.asm8-18-2017  19:26:59          PAGE  3


LOC  OBJECT CODE     LINE SOURCE TEXT
  VALUE

                      00107         extern  _UEP1
                      00108         extern  _UEP2
                      00109         extern  _UEP3
                      00110         extern  _UEP4
                      00111         extern  _UEP5
                      00112         extern  _UEP6
                      00113         extern  _UEP7
                      00114         extern  _UEIE
                      00115         extern  _UADDR
                      00116         extern  _UFRML
                      00117         extern  _UFRMH
                      00118         extern  _UEIR
                      00119         extern  _UIE
                      00120         extern  _UCFG
                      00121         extern  _UIR
                      00122         extern  _USTAT
                      00123         extern  _UCON
                      00124         extern  _SRCON0
                      00125         extern  _SRCON1
                      00126         extern  _CM2CON0
                      00127         extern  _CM2CON1
                      00128         extern  _CM1CON0
                      00129         extern  _SSPMSK
                      00130         extern  _SLRCON
                      00131         extern  _WPUA
                      00132         extern  _WPUB
                      00133         extern  _IOCA
                      00134         extern  _IOCB
                      00135         extern  _ANSEL
                      00136         extern  _ANSELH
                      00137         extern  _PORTA
                      00138         extern  _PORTB
                      00139         extern  _PORTC
                      00140         extern  _LATA
                      00141         extern  _LATB
                      00142         extern  _LATC
                      00143         extern  _DDRA
                      00144         extern  _TRISA
                      00145         extern  _DDRB
                      00146         extern  _TRISB
                      00147         extern  _DDRC
                      00148         extern  _TRISC
                      00149         extern  _OSCTUNE
                      00150         extern  _PIE1
                      00151         extern  _PIR1
                      00152         extern  _IPR1
                      00153         extern  _PIE2
                      00154         extern  _PIR2
                      00155         extern  _IPR2
                      00156         extern  _EECON1
                      00157         extern  _EECON2
                      00158         extern  _EEDATA
                      00159         extern  _EEADR
gpasm-0.14.1 (Aug 18 2017)   libio18f14k50_a-adcopen.asm8-18-2017  19:26:59          PAGE  4


LOC  OBJECT CODE     LINE SOURCE TEXT
  VALUE

                      00160         extern  _EEADRH
                      00161         extern  _RCSTA
                      00162         extern  _TXSTA
                      00163         extern  _TXREG
                      00164         extern  _RCREG
                      00165         extern  _SPBRG
                      00166         extern  _SPBRGH
                      00167         extern  _T3CON
                      00168         extern  _TMR3L
                      00169         extern  _TMR3H
                      00170         extern  _ECCP1AS
                      00171         extern  _PWM1CON
                      00172         extern  _BAUDCON
                      00173         extern  _BAUDCTL
                      00174         extern  _PSTRCON
                      00175         extern  _REFCON0
                      00176         extern  _VREFCON0
                      00177         extern  _REFCON1
                      00178         extern  _VREFCON1
                      00179         extern  _REFCON2
                      00180         extern  _VREFCON2
                      00181         extern  _CCP1CON
                      00182         extern  _CCPR1
                      00183         extern  _CCPR1L
                      00184         extern  _CCPR1H
                      00185         extern  _ADCON2
                      00186         extern  _ADCON1
                      00187         extern  _ADCON0
                      00188         extern  _ADRES
                      00189         extern  _ADRESL
                      00190         extern  _ADRESH
                      00191         extern  _SSPCON2
                      00192         extern  _SSPCON1
                      00193         extern  _SSPSTAT
                      00194         extern  _SSPADD
                      00195         extern  _SSPBUF
                      00196         extern  _T2CON
                      00197         extern  _PR2
                      00198         extern  _TMR2
                      00199         extern  _T1CON
                      00200         extern  _TMR1L
                      00201         extern  _TMR1H
                      00202         extern  _RCON
                      00203         extern  _WDTCON
                      00204         extern  _OSCCON2
                      00205         extern  _OSCCON
                      00206         extern  _T0CON
                      00207         extern  _TMR0L
                      00208         extern  _TMR0H
                      00209         extern  _STATUS
                      00210         extern  _FSR2L
                      00211         extern  _FSR2H
                      00212         extern  _PLUSW2
gpasm-0.14.1 (Aug 18 2017)   libio18f14k50_a-adcopen.asm8-18-2017  19:26:59          PAGE  5


LOC  OBJECT CODE     LINE SOURCE TEXT
  VALUE

                      00213         extern  _PREINC2
                      00214         extern  _POSTDEC2
                      00215         extern  _POSTINC2
                      00216         extern  _INDF2
                      00217         extern  _BSR
                      00218         extern  _FSR1L
                      00219         extern  _FSR1H
                      00220         extern  _PLUSW1
                      00221         extern  _PREINC1
                      00222         extern  _POSTDEC1
                      00223         extern  _POSTINC1
                      00224         extern  _INDF1
                      00225         extern  _WREG
                      00226         extern  _FSR0L
                      00227         extern  _FSR0H
                      00228         extern  _PLUSW0
                      00229         extern  _PREINC0
                      00230         extern  _POSTDEC0
                      00231         extern  _POSTINC0
                      00232         extern  _INDF0
                      00233         extern  _INTCON3
                      00234         extern  _INTCON2
                      00235         extern  _INTCON
                      00236         extern  _PROD
                      00237         extern  _PRODL
                      00238         extern  _PRODH
                      00239         extern  _TABLAT
                      00240         extern  _TBLPTR
                      00241         extern  _TBLPTRL
                      00242         extern  _TBLPTRH
                      00243         extern  _TBLPTRU
                      00244         extern  _PC
                      00245         extern  _PCL
                      00246         extern  _PCLATH
                      00247         extern  _PCLATU
                      00248         extern  _STKPTR
                      00249         extern  _TOS
                      00250         extern  _TOSL
                      00251         extern  _TOSH
                      00252         extern  _TOSU
                      00253 
                      00254 ;--------------------------------------------------------
                      00255 ;       Equates to used internal registers
                      00256 ;--------------------------------------------------------
  00000FE8            00257 WREG    equ     0xfe8
  00000FE1            00258 FSR1L   equ     0xfe1
  00000FD9            00259 FSR2L   equ     0xfd9
  00000FE5            00260 POSTDEC1        equ     0xfe5
  00000FE4            00261 PREINC1 equ     0xfe4
  00000FDB            00262 PLUSW2  equ     0xfdb
                      00263 
                      00264 
                      00265 ; Internal registers
gpasm-0.14.1 (Aug 18 2017)   libio18f14k50_a-adcopen.asm8-18-2017  19:26:59          PAGE  6


LOC  OBJECT CODE     LINE SOURCE TEXT
  VALUE

                      00266 .registers      udata_ovr       0x0000
000000                00267 r0x00   res     1
000001                00268 r0x01   res     1
000002                00269 r0x02   res     1
000003                00270 r0x03   res     1
000004                00271 r0x04   res     1
                      00272 
                      00273 ;--------------------------------------------------------
                      00274 ; global & static initialisations
                      00275 ;--------------------------------------------------------
                      00276 ; I code from now on!
                      00277 ; ; Starting pCode block
                      00278 ; ;ic:1:  _entry($4) :
                      00279 ; ;ic:2:        proc _adc_open [k1 lr0:0 so:0]{ ia0 a2p0 re0 rm0 nos0 ru0 dp0}{void function ( unsigned-char fixed, unsigned-char fixed, unsigned-int fixed, unsigned-char fixed) fixed}
                      00280 S_adcopen__adc_open     code
000000                00281 _adc_open:
                      00282 ;       .line   42; adc/adcopen.c       adc_open(unsigned char channel, unsigned char fosc, sdcc_pcfg_t pcfg, unsigned char config)
000000 CFD9 FFE5      00283         MOVFF   FSR2L, POSTDEC1
000004 CFE1 FFD9      00284         MOVFF   FSR1L, FSR2L
000008 C000 FFE5      00285         MOVFF   r0x00, POSTDEC1
00000C C000 FFE5      00286         MOVFF   r0x01, POSTDEC1
000010 C000 FFE5      00287         MOVFF   r0x02, POSTDEC1
000014 C000 FFE5      00288         MOVFF   r0x03, POSTDEC1
000018 C000 FFE5      00289         MOVFF   r0x04, POSTDEC1
                      00290 ; ;ic:3: iTemp0 [k2 lr3:11 so:0]{ ia0 a2p0 re1 rm0 nos0 ru0 dp0}{unsigned-char fixed}{ sir@ _adc_open_channel_1_7}[r0x00 ] = recv _adc_open [k1 lr0:0 so:0]{ ia0 a2p0 re0 rm0 nos0 ru0 dp0}{void function ( unsigned-char fixed, unsigned-char fixed, unsigned-int fixed, unsigned-char fixed) fixed}
00001C 0E02           00291         MOVLW   0x02
00001E CFDB F000      00292         MOVFF   PLUSW2, r0x00
                      00293 ; ;ic:4: iTemp1 [k4 lr4:15 so:0]{ ia0 a2p0 re1 rm0 nos0 ru0 dp0}{unsigned-char fixed}{ sir@ _adc_open_fosc_1_7}[r0x01 ] = recv _adc_open [k1 lr0:0 so:0]{ ia0 a2p0 re0 rm0 nos0 ru0 dp0}{void function ( unsigned-char fixed, unsigned-char fixed, unsigned-int fixed, unsigned-char fixed) fixed}
000022 0E03           00294         MOVLW   0x03
000024 CFDB F000      00295         MOVFF   PLUSW2, r0x01
                      00296 ; ;ic:5: iTemp2 [k6 lr5:9 so:0]{ ia0 a2p0 re1 rm0 nos0 ru0 dp0}{unsigned-int fixed}{ sir@ _adc_open_pcfg_1_7}[r0x02 r0x03 ] = recv _adc_open [k1 lr0:0 so:0]{ ia0 a2p0 re0 rm0 nos0 ru0 dp0}{void function ( unsigned-char fixed, unsigned-char fixed, unsigned-int fixed, unsigned-char fixed) fixed}
000028 0E04           00297         MOVLW   0x04
00002A CFDB F000      00298         MOVFF   PLUSW2, r0x02
00002E 0E05           00299         MOVLW   0x05
000030 CFDB F000      00300         MOVFF   PLUSW2, r0x03
                      00301 ; ;ic:6: iTemp3 [k8 lr6:17 so:0]{ ia0 a2p0 re1 rm0 nos0 ru0 dp0}{unsigned-char fixed}{ sir@ _adc_open_config_1_7}[r0x04 ] = recv _adc_open [k1 lr0:0 so:0]{ ia0 a2p0 re0 rm0 nos0 ru0 dp0}{void function ( unsigned-char fixed, unsigned-char fixed, unsigned-int fixed, unsigned-char fixed) fixed}
000034 0E06           00302         MOVLW   0x06
000036 CFDB F000      00303         MOVFF   PLUSW2, r0x04
                      00304 ; ;ic:7:        _ADCON0 [k10 lr0:0 so:0]{ ia1 a2p0 re0 rm0 nos0 ru0 dp0}{volatile-unsigned-char sfr} := 0x0 {const-unsigned-char literal}
                      00305 ;       .line   48; adc/adcopen.c       ADCON0 = 0;
00003A 6A00           00306         CLRF    _ADCON0
                      00307 ; ;ic:8:        _ANSEL [k11 lr0:0 so:0]{ ia1 a2p0 re0 rm0 nos0 ru0 dp0}{volatile-unsigned-char sfr} = (volatile-unsigned-char sfr)iTemp2 [k6 lr5:9 so:0]{ ia0 a2p0 re1 rm0 nos0 ru0 dp0}{unsigned-int fixed}{ sir@ _adc_open_pcfg_1_7}[r0x02 r0x03 ]
                      00308 ;       .line   65; adc/adcopen.c       ANSEL = pcfg;
00003C 5000           00309         MOVF    r0x02, W
00003E 6E00           00310         MOVWF   _ANSEL
                      00311 ; ;ic:9:        iTemp5 [k14 lr9:10 so:0]{ ia0 a2p0 re0 rm0 nos0 ru0 dp0}{unsigned-int fixed}[r0x02 r0x03 ] = iTemp2 [k6 lr5:9 so:0]{ ia0 a2p0 re1 rm0 nos0 ru0 dp0}{unsigned-int fixed}{ sir@ _adc_open_pcfg_1_7}[r0x02 r0x03 ] >> 0x8 {const-unsigned-char literal}
                      00312 ;       .line   66; adc/adcopen.c       ANSELH = (pcfg >> 8);
000040 5000           00313         MOVF    r0x03, W
                      00314 ; ;ic:10:       _ANSELH [k13 lr0:0 so:0]{ ia1 a2p0 re0 rm0 nos0 ru0 dp0}{volatile-unsigned-char sfr} = (volatile-unsigned-char sfr)iTemp5 [k14 lr9:10 so:0]{ ia0 a2p0 re0 rm0 nos0 ru0 dp0}{unsigned-int fixed}[r0x02 r0x03 ]
000042 6E00           00315         MOVWF   _ANSELH
                      00316 ; ;ic:11:       iTemp7 [k16 lr11:12 so:0]{ ia0 a2p0 re0 rm0 nos0 ru0 dp0}{unsigned-char register}[r0x00 ] = iTemp0 [k2 lr3:11 so:0]{ ia0 a2p0 re1 rm0 nos0 ru0 dp0}{unsigned-char fixed}{ sir@ _adc_open_channel_1_7}[r0x00 ] & 0xf {const-unsigned-char literal}
                      00317 ;       .line   67; adc/adcopen.c       ADCON0 = ((channel & 0x0f) << 2);
000044 0E0F           00318         MOVLW   0x0f
gpasm-0.14.1 (Aug 18 2017)   libio18f14k50_a-adcopen.asm8-18-2017  19:26:59          PAGE  7


LOC  OBJECT CODE     LINE SOURCE TEXT
  VALUE

000046 1600           00319         ANDWF   r0x00, F
                      00320 ; ;ic:12:       _ADCON0 [k10 lr0:0 so:0]{ ia1 a2p0 re0 rm0 nos0 ru0 dp0}{volatile-unsigned-char sfr} = iTemp7 [k16 lr11:12 so:0]{ ia0 a2p0 re0 rm0 nos0 ru0 dp0}{unsigned-char register}[r0x00 ] << 0x2 {const-unsigned-char literal}
000048 4400           00321         RLNCF   r0x00, W
00004A 44E8           00322         RLNCF   WREG, W
00004C 0BFC           00323         ANDLW   0xfc
00004E 6E00           00324         MOVWF   _ADCON0
                      00325 ; ;ic:13:       _ADCON1 [k18 lr0:0 so:0]{ ia1 a2p0 re0 rm0 nos0 ru0 dp0}{volatile-unsigned-char sfr} = iTemp3 [k8 lr6:17 so:0]{ ia0 a2p0 re1 rm0 nos0 ru0 dp0}{unsigned-char fixed}{ sir@ _adc_open_config_1_7}[r0x04 ] & 0xf {const-unsigned-char literal}
                      00326 ;       .line   68; adc/adcopen.c       ADCON1 = (config & 0x0f);
000050 0E0F           00327         MOVLW   0x0f
000052 1400           00328         ANDWF   r0x04, W
000054 6E00           00329         MOVWF   _ADCON1
                      00330 ; ;ic:14:       iTemp10 [k21 lr14:16 so:0]{ ia0 a2p0 re0 rm0 nos0 ru0 dp0}{unsigned-char register}[r0x00 ] = iTemp3 [k8 lr6:17 so:0]{ ia0 a2p0 re1 rm0 nos0 ru0 dp0}{unsigned-char fixed}{ sir@ _adc_open_config_1_7}[r0x04 ] & 0x80 {const-unsigned-char literal}
                      00331 ;       .line   69; adc/adcopen.c       ADCON2 = (config & ADC_FRM_RJUST) | (fosc & 0x3f);
000056 0E80           00332         MOVLW   0x80
000058 1400           00333         ANDWF   r0x04, W
00005A 6E00           00334         MOVWF   r0x00
                      00335 ; ;ic:15:       iTemp11 [k22 lr15:16 so:0]{ ia0 a2p0 re0 rm0 nos0 ru0 dp0}{unsigned-char register}[r0x01 ] = iTemp1 [k4 lr4:15 so:0]{ ia0 a2p0 re1 rm0 nos0 ru0 dp0}{unsigned-char fixed}{ sir@ _adc_open_fosc_1_7}[r0x01 ] & 0x3f {const-unsigned-char literal}
00005C 0E3F           00336         MOVLW   0x3f
00005E 1600           00337         ANDWF   r0x01, F
                      00338 ; ;ic:16:       _ADCON2 [k20 lr0:0 so:0]{ ia1 a2p0 re0 rm0 nos0 ru0 dp0}{volatile-unsigned-char sfr} = iTemp10 [k21 lr14:16 so:0]{ ia0 a2p0 re0 rm0 nos0 ru0 dp0}{unsigned-char register}[r0x00 ] | iTemp11 [k22 lr15:16 so:0]{ ia0 a2p0 re0 rm0 nos0 ru0 dp0}{unsigned-char register}[r0x01 ]
000060 5000           00339         MOVF    r0x01, W
000062 1000           00340         IORWF   r0x00, W
000064 6E00           00341         MOVWF   _ADCON2
                      00342 ; ;ic:17:       iTemp13 [k24 lr17:18 so:0]{ ia0 a2p0 re0 rm0 nos0 ru0 dp0}{unsigned-char register} = iTemp3 [k8 lr6:17 so:0]{ ia0 a2p0 re1 rm0 nos0 ru0 dp0}{unsigned-char fixed}{ sir@ _adc_open_config_1_7}[r0x04 ] & 0x40 {const-unsigned-char literal}
                      00343 ;       .line   103; adc/adcopen.c      if (config & ADC_INT_ON) {
000066 AC00           00344         BTFSS   r0x04, 6
000068 D000           00345         BRA     _00106_DS_
                      00346 ; ;ic:18:       if iTemp13 [k24 lr17:18 so:0]{ ia0 a2p0 re0 rm0 nos0 ru0 dp0}{unsigned-char register} == 0 goto _iffalse_0($2)
                      00347 ; ;ic:19:       iTemp14 [k26 lr19:20 so:0]{ ia0 a2p0 re0 rm1 nos0 ru0 dp0}{volatile-unsigned-bitfield {6,1} near* fixed}[remat] = &[_PIR1bits [k25 lr0:0 so:0]{ ia0 a2p0 re0 rm0 nos0 ru0 dp0}{volatile-struct __00000253 fixed}]
                      00348 ; ;ic:20:       iTemp15 [k28 lr20:21 so:0]{ ia0 a2p0 re0 rm1 nos0 ru0 dp0}{volatile-unsigned-bitfield {6,1} near* fixed}[remat] := iTemp14 [k26 lr19:20 so:0]{ ia0 a2p0 re0 rm1 nos0 ru0 dp0}{volatile-unsigned-bitfield {6,1} near* fixed}[remat]
                      00349 ; ;ic:21:       *(iTemp15 [k28 lr20:21 so:0]{ ia1 a2p0 re0 rm1 nos0 ru0 dp0}{volatile-unsigned-bitfield {6,1} near* fixed}[remat]) := 0x0 {const-unsigned-char literal}
                      00350 ;       .line   104; adc/adcopen.c      PIR1bits.ADIF = 0;
00006A 9C00           00351         BCF     _PIR1bits, 6
                      00352 ; ;ic:22:       iTemp16 [k30 lr22:23 so:0]{ ia0 a2p0 re0 rm1 nos0 ru0 dp0}{volatile-unsigned-bitfield {6,1} near* fixed}[remat] = &[_PIE1bits [k29 lr0:0 so:0]{ ia0 a2p0 re0 rm0 nos0 ru0 dp0}{volatile-struct __00000250 fixed}]
                      00353 ; ;ic:23:       iTemp17 [k32 lr23:24 so:0]{ ia0 a2p0 re0 rm1 nos0 ru0 dp0}{volatile-unsigned-bitfield {6,1} near* fixed}[remat] := iTemp16 [k30 lr22:23 so:0]{ ia0 a2p0 re0 rm1 nos0 ru0 dp0}{volatile-unsigned-bitfield {6,1} near* fixed}[remat]
                      00354 ; ;ic:24:       *(iTemp17 [k32 lr23:24 so:0]{ ia1 a2p0 re0 rm1 nos0 ru0 dp0}{volatile-unsigned-bitfield {6,1} near* fixed}[remat]) := 0x1 {const-unsigned-char literal}
                      00355 ;       .line   105; adc/adcopen.c      PIE1bits.ADIE = 1;
00006C 8C00           00356         BSF     _PIE1bits, 6
                      00357 ; ;ic:25:       iTemp18 [k34 lr25:26 so:0]{ ia0 a2p0 re0 rm1 nos0 ru0 dp0}{volatile-unsigned-bitfield {6,1} near* fixed}[remat] = &[_INTCONbits [k33 lr0:0 so:0]{ ia0 a2p0 re0 rm0 nos0 ru0 dp0}{volatile-struct __00000499 fixed}]
                      00358 ; ;ic:26:       iTemp19 [k36 lr26:27 so:0]{ ia0 a2p0 re0 rm1 nos0 ru0 dp0}{volatile-unsigned-bitfield {6,1} near* fixed}[remat] := iTemp18 [k34 lr25:26 so:0]{ ia0 a2p0 re0 rm1 nos0 ru0 dp0}{volatile-unsigned-bitfield {6,1} near* fixed}[remat]
                      00359 ; ;ic:27:       *(iTemp19 [k36 lr26:27 so:0]{ ia1 a2p0 re0 rm1 nos0 ru0 dp0}{volatile-unsigned-bitfield {6,1} near* fixed}[remat]) := 0x1 {const-unsigned-char literal}
                      00360 ;       .line   106; adc/adcopen.c      INTCONbits.PEIE = 1;
00006E 8C00           00361         BSF     _INTCONbits, 6
                      00362 ; ;ic:28:  _iffalse_0($2) :
                      00363 ; ;ic:29:       iTemp20 [k38 lr29:30 so:0]{ ia0 a2p0 re0 rm1 nos0 ru0 dp0}{volatile-unsigned-bitfield {0,1} near* fixed}[remat] = &[_ADCON0bits [k37 lr0:0 so:0]{ ia0 a2p0 re0 rm0 nos0 ru0 dp0}{volatile-struct __00000372 fixed}]
                      00364 ; ;ic:30:       iTemp21 [k40 lr30:31 so:0]{ ia0 a2p0 re0 rm1 nos0 ru0 dp0}{volatile-unsigned-bitfield {0,1} near* fixed}[remat] := iTemp20 [k38 lr29:30 so:0]{ ia0 a2p0 re0 rm1 nos0 ru0 dp0}{volatile-unsigned-bitfield {0,1} near* fixed}[remat]
                      00365 ; ;ic:31:       *(iTemp21 [k40 lr30:31 so:0]{ ia1 a2p0 re0 rm1 nos0 ru0 dp0}{volatile-unsigned-bitfield {0,1} near* fixed}[remat]) := 0x1 {const-unsigned-char literal}
000070                00366 _00106_DS_:
                      00367 ;       .line   110; adc/adcopen.c      ADCON0bits.ADON = 1;
000070 8000           00368         BSF     _ADCON0bits, 0
                      00369 ; ;ic:32:  _return($3) :
                      00370 ; ;ic:33:       eproc _adc_open [k1 lr0:0 so:0]{ ia0 a2p0 re0 rm0 nos0 ru0 dp0}{void function ( unsigned-char fixed, unsigned-char fixed, unsigned-int fixed, unsigned-char fixed) fixed}
000072 CFE4 F000      00371         MOVFF   PREINC1, r0x04
gpasm-0.14.1 (Aug 18 2017)   libio18f14k50_a-adcopen.asm8-18-2017  19:26:59          PAGE  8


LOC  OBJECT CODE     LINE SOURCE TEXT
  VALUE

000076 CFE4 F000      00372         MOVFF   PREINC1, r0x03
00007A CFE4 F000      00373         MOVFF   PREINC1, r0x02
00007E CFE4 F000      00374         MOVFF   PREINC1, r0x01
000082 CFE4 F000      00375         MOVFF   PREINC1, r0x00
000086 CFE4 FFD9      00376         MOVFF   PREINC1, FSR2L
00008A 0012           00377         RETURN  
                      00378 
                      00379 
                      00380 
                      00381 ; Statistics:
                      00382 ; code size:      140 (0x008c) bytes ( 0.11%)
                      00383 ;                  70 (0x0046) words
                      00384 ; udata size:       0 (0x0000) bytes ( 0.00%)
                      00385 ; access size:      5 (0x0005) bytes
                      00386 
                      00387 
                      00388         end
gpasm-0.14.1 (Aug 18 2017)   libio18f14k50_a-adcopen.asm8-18-2017  19:26:59          PAGE  9


SYMBOL TABLE
  LABEL                             VALUE

FSR1L                             00000FE1
FSR2L                             00000FD9
PLUSW2                            00000FDB
POSTDEC1                          00000FE5
PREINC1                           00000FE4
WREG                              00000FE8
_00106_DS_                        00000070
_ADCON0                           00000000
_ADCON0bits                       00000000
_ADCON1                           00000000
_ADCON1bits                       00000000
_ADCON2                           00000000
_ADCON2bits                       00000000
_ADRES                            00000000
_ADRESH                           00000000
_ADRESL                           00000000
_ANSEL                            00000000
_ANSELH                           00000000
_ANSELHbits                       00000000
_ANSELbits                        00000000
_BAUDCON                          00000000
_BAUDCONbits                      00000000
_BAUDCTL                          00000000
_BAUDCTLbits                      00000000
_BSR                              00000000
_CCP1CON                          00000000
_CCP1CONbits                      00000000
_CCPR1                            00000000
_CCPR1H                           00000000
_CCPR1L                           00000000
_CM1CON0                          00000000
_CM1CON0bits                      00000000
_CM2CON0                          00000000
_CM2CON0bits                      00000000
_CM2CON1                          00000000
_CM2CON1bits                      00000000
_DDRA                             00000000
_DDRAbits                         00000000
_DDRB                             00000000
_DDRBbits                         00000000
_DDRC                             00000000
_DDRCbits                         00000000
_ECCP1AS                          00000000
_ECCP1ASbits                      00000000
_EEADR                            00000000
_EEADRH                           00000000
_EEADRHbits                       00000000
_EEADRbits                        00000000
_EECON1                           00000000
_EECON1bits                       00000000
_EECON2                           00000000
_EEDATA                           00000000
_FSR0H                            00000000
gpasm-0.14.1 (Aug 18 2017)   libio18f14k50_a-adcopen.asm8-18-2017  19:26:59          PAGE 10


SYMBOL TABLE
  LABEL                             VALUE 

_FSR0L                            00000000
_FSR1H                            00000000
_FSR1L                            00000000
_FSR2H                            00000000
_FSR2L                            00000000
_INDF0                            00000000
_INDF1                            00000000
_INDF2                            00000000
_INTCON                           00000000
_INTCON2                          00000000
_INTCON2bits                      00000000
_INTCON3                          00000000
_INTCON3bits                      00000000
_INTCONbits                       00000000
_IOCA                             00000000
_IOCAbits                         00000000
_IOCB                             00000000
_IOCBbits                         00000000
_IPR1                             00000000
_IPR1bits                         00000000
_IPR2                             00000000
_IPR2bits                         00000000
_LATA                             00000000
_LATAbits                         00000000
_LATB                             00000000
_LATBbits                         00000000
_LATC                             00000000
_LATCbits                         00000000
_OSCCON                           00000000
_OSCCON2                          00000000
_OSCCON2bits                      00000000
_OSCCONbits                       00000000
_OSCTUNE                          00000000
_OSCTUNEbits                      00000000
_PC                               00000000
_PCL                              00000000
_PCLATH                           00000000
_PCLATU                           00000000
_PIE1                             00000000
_PIE1bits                         00000000
_PIE2                             00000000
_PIE2bits                         00000000
_PIR1                             00000000
_PIR1bits                         00000000
_PIR2                             00000000
_PIR2bits                         00000000
_PLUSW0                           00000000
_PLUSW1                           00000000
_PLUSW2                           00000000
_PORTA                            00000000
_PORTAbits                        00000000
_PORTB                            00000000
_PORTBbits                        00000000
gpasm-0.14.1 (Aug 18 2017)   libio18f14k50_a-adcopen.asm8-18-2017  19:26:59          PAGE 11


SYMBOL TABLE
  LABEL                             VALUE 

_PORTC                            00000000
_PORTCbits                        00000000
_POSTDEC0                         00000000
_POSTDEC1                         00000000
_POSTDEC2                         00000000
_POSTINC0                         00000000
_POSTINC1                         00000000
_POSTINC2                         00000000
_PR2                              00000000
_PREINC0                          00000000
_PREINC1                          00000000
_PREINC2                          00000000
_PROD                             00000000
_PRODH                            00000000
_PRODL                            00000000
_PSTRCON                          00000000
_PSTRCONbits                      00000000
_PWM1CON                          00000000
_PWM1CONbits                      00000000
_RCON                             00000000
_RCONbits                         00000000
_RCREG                            00000000
_RCSTA                            00000000
_RCSTAbits                        00000000
_REFCON0                          00000000
_REFCON0bits                      00000000
_REFCON1                          00000000
_REFCON1bits                      00000000
_REFCON2                          00000000
_REFCON2bits                      00000000
_SLRCON                           00000000
_SLRCONbits                       00000000
_SPBRG                            00000000
_SPBRGH                           00000000
_SRCON0                           00000000
_SRCON0bits                       00000000
_SRCON1                           00000000
_SRCON1bits                       00000000
_SSPADD                           00000000
_SSPBUF                           00000000
_SSPCON1                          00000000
_SSPCON1bits                      00000000
_SSPCON2                          00000000
_SSPCON2bits                      00000000
_SSPMSK                           00000000
_SSPMSKbits                       00000000
_SSPSTAT                          00000000
_SSPSTATbits                      00000000
_STATUS                           00000000
_STATUSbits                       00000000
_STKPTR                           00000000
_STKPTRbits                       00000000
_T0CON                            00000000
gpasm-0.14.1 (Aug 18 2017)   libio18f14k50_a-adcopen.asm8-18-2017  19:26:59          PAGE 12


SYMBOL TABLE
  LABEL                             VALUE 

_T0CONbits                        00000000
_T1CON                            00000000
_T1CONbits                        00000000
_T2CON                            00000000
_T2CONbits                        00000000
_T3CON                            00000000
_T3CONbits                        00000000
_TABLAT                           00000000
_TBLPTR                           00000000
_TBLPTRH                          00000000
_TBLPTRL                          00000000
_TBLPTRU                          00000000
_TMR0H                            00000000
_TMR0L                            00000000
_TMR1H                            00000000
_TMR1L                            00000000
_TMR2                             00000000
_TMR3H                            00000000
_TMR3L                            00000000
_TOS                              00000000
_TOSH                             00000000
_TOSL                             00000000
_TOSU                             00000000
_TRISA                            00000000
_TRISAbits                        00000000
_TRISB                            00000000
_TRISBbits                        00000000
_TRISC                            00000000
_TRISCbits                        00000000
_TXREG                            00000000
_TXSTA                            00000000
_TXSTAbits                        00000000
_UADDR                            00000000
_UADDRbits                        00000000
_UCFG                             00000000
_UCFGbits                         00000000
_UCON                             00000000
_UCONbits                         00000000
_UEIE                             00000000
_UEIEbits                         00000000
_UEIR                             00000000
_UEIRbits                         00000000
_UEP0                             00000000
_UEP0bits                         00000000
_UEP1                             00000000
_UEP1bits                         00000000
_UEP2                             00000000
_UEP2bits                         00000000
_UEP3                             00000000
_UEP3bits                         00000000
_UEP4                             00000000
_UEP4bits                         00000000
_UEP5                             00000000
gpasm-0.14.1 (Aug 18 2017)   libio18f14k50_a-adcopen.asm8-18-2017  19:26:59          PAGE 13


SYMBOL TABLE
  LABEL                             VALUE 

_UEP5bits                         00000000
_UEP6                             00000000
_UEP6bits                         00000000
_UEP7                             00000000
_UEP7bits                         00000000
_UFRMH                            00000000
_UFRMHbits                        00000000
_UFRML                            00000000
_UFRMLbits                        00000000
_UIE                              00000000
_UIEbits                          00000000
_UIR                              00000000
_UIRbits                          00000000
_USTAT                            00000000
_USTATbits                        00000000
_VREFCON0                         00000000
_VREFCON0bits                     00000000
_VREFCON1                         00000000
_VREFCON1bits                     00000000
_VREFCON2                         00000000
_VREFCON2bits                     00000000
_WDTCON                           00000000
_WDTCONbits                       00000000
_WPUA                             00000000
_WPUAbits                         00000000
_WPUB                             00000000
_WPUBbits                         00000000
_WREG                             00000000
__18F14K50                        00000001
_adc_open                         00000000
r0x00                             00000000
r0x01                             00000001
r0x02                             00000002
r0x03                             00000003
r0x04                             00000004

Errors   :     0
Warnings :     0 reported,     0 suppressed
Messages :     0 reported,     0 suppressed

