gpasm-0.14.1 (Aug 18 2017)   libio18f1320_a-uopen.asm8-18-2017  19:25:55          PAGE  1


LOC  OBJECT CODE     LINE SOURCE TEXT
  VALUE

                      00001 ;--------------------------------------------------------
                      00002 ; File Created by SDCC : free open source ANSI-C Compiler
                      00003 ; Version 3.2.0 #8004 (Aug 18 2017) (MINGW32)
                      00004 ; This file was generated Fri Aug 18 19:25:55 2017
                      00005 ;--------------------------------------------------------
                      00006 ; PIC16 port for the Microchip 16-bit core micros
                      00007 ;--------------------------------------------------------
                      00008         list    p=18f1320
                      00009 
                      00010         radix dec
                      00011 
                      00012 ;--------------------------------------------------------
                      00013 ; public variables in this module
                      00014 ;--------------------------------------------------------
                      00015         global  _usart_open
                      00016 
                      00017 ;--------------------------------------------------------
                      00018 ; extern variables in this module
                      00019 ;--------------------------------------------------------
                      00020         extern  _PORTAbits
                      00021         extern  _PORTBbits
                      00022         extern  _LATAbits
                      00023         extern  _LATBbits
                      00024         extern  _TRISAbits
                      00025         extern  _TRISBbits
                      00026         extern  _PIE1bits
                      00027         extern  _PIR1bits
                      00028         extern  _IPR1bits
                      00029         extern  _PIE2bits
                      00030         extern  _PIR2bits
                      00031         extern  _IPR2bits
                      00032         extern  _EECON1bits
                      00033         extern  _BAUDCTLbits
                      00034         extern  _RCSTAbits
                      00035         extern  _TXSTAbits
                      00036         extern  _T3CONbits
                      00037         extern  _ECCPASbits
                      00038         extern  _CCP1CONbits
                      00039         extern  _ADCON2bits
                      00040         extern  _ADCON1bits
                      00041         extern  _ADCON0bits
                      00042         extern  _T2CONbits
                      00043         extern  _T1CONbits
                      00044         extern  _RCONbits
                      00045         extern  _WDTCONbits
                      00046         extern  _LVDCONbits
                      00047         extern  _OSCCONbits
                      00048         extern  _T0CONbits
                      00049         extern  _STATUSbits
                      00050         extern  _INTCON3bits
                      00051         extern  _INTCON2bits
                      00052         extern  _INTCONbits
                      00053         extern  _STKPTRbits
gpasm-0.14.1 (Aug 18 2017)   libio18f1320_a-uopen.asm8-18-2017  19:25:55          PAGE  2


LOC  OBJECT CODE     LINE SOURCE TEXT
  VALUE

                      00054         extern  _USART_Status
                      00055         extern  _PORTA
                      00056         extern  _PORTB
                      00057         extern  _LATA
                      00058         extern  _LATB
                      00059         extern  _TRISA
                      00060         extern  _TRISB
                      00061         extern  _PIE1
                      00062         extern  _PIR1
                      00063         extern  _IPR1
                      00064         extern  _PIE2
                      00065         extern  _PIR2
                      00066         extern  _IPR2
                      00067         extern  _EECON1
                      00068         extern  _EECON2
                      00069         extern  _EEDATA
                      00070         extern  _EEADR
                      00071         extern  _BAUDCTL
                      00072         extern  _RCSTA
                      00073         extern  _TXSTA
                      00074         extern  _TXREG
                      00075         extern  _RCREG
                      00076         extern  _SPBRG
                      00077         extern  _SPBRGH
                      00078         extern  _T3CON
                      00079         extern  _TMR3L
                      00080         extern  _TMR3H
                      00081         extern  _ECCPAS
                      00082         extern  _CCP1CON
                      00083         extern  _CCPR1L
                      00084         extern  _CCPR1H
                      00085         extern  _ADCON2
                      00086         extern  _ADCON1
                      00087         extern  _ADCON0
                      00088         extern  _ADRESL
                      00089         extern  _ADRESH
                      00090         extern  _T2CON
                      00091         extern  _PR2
                      00092         extern  _TMR2
                      00093         extern  _T1CON
                      00094         extern  _TMR1L
                      00095         extern  _TMR1H
                      00096         extern  _RCON
                      00097         extern  _WDTCON
                      00098         extern  _LVDCON
                      00099         extern  _OSCCON
                      00100         extern  _T0CON
                      00101         extern  _TMR0L
                      00102         extern  _TMR0H
                      00103         extern  _STATUS
                      00104         extern  _FSR2L
                      00105         extern  _FSR2H
                      00106         extern  _PLUSW2
gpasm-0.14.1 (Aug 18 2017)   libio18f1320_a-uopen.asm8-18-2017  19:25:55          PAGE  3


LOC  OBJECT CODE     LINE SOURCE TEXT
  VALUE

                      00107         extern  _PREINC2
                      00108         extern  _POSTDEC2
                      00109         extern  _POSTINC2
                      00110         extern  _INDF2
                      00111         extern  _BSR
                      00112         extern  _FSR1L
                      00113         extern  _FSR1H
                      00114         extern  _PLUSW1
                      00115         extern  _PREINC1
                      00116         extern  _POSTDEC1
                      00117         extern  _POSTINC1
                      00118         extern  _INDF1
                      00119         extern  _WREG
                      00120         extern  _FSR0L
                      00121         extern  _FSR0H
                      00122         extern  _PLUSW0
                      00123         extern  _PREINC0
                      00124         extern  _POSTDEC0
                      00125         extern  _POSTINC0
                      00126         extern  _INDF0
                      00127         extern  _INTCON3
                      00128         extern  _INTCON2
                      00129         extern  _INTCON
                      00130         extern  _PRODL
                      00131         extern  _PRODH
                      00132         extern  _TABLAT
                      00133         extern  _TBLPTRL
                      00134         extern  _TBLPTRH
                      00135         extern  _TBLPTRU
                      00136         extern  _PCL
                      00137         extern  _PCLATH
                      00138         extern  _PCLATU
                      00139         extern  _STKPTR
                      00140         extern  _TOSL
                      00141         extern  _TOSH
                      00142         extern  _TOSU
                      00143 
                      00144 ;--------------------------------------------------------
                      00145 ;       Equates to used internal registers
                      00146 ;--------------------------------------------------------
  00000FE1            00147 FSR1L   equ     0xfe1
  00000FD9            00148 FSR2L   equ     0xfd9
  00000FE5            00149 POSTDEC1        equ     0xfe5
  00000FE4            00150 PREINC1 equ     0xfe4
  00000FDB            00151 PLUSW2  equ     0xfdb
                      00152 
                      00153 
                      00154 ; Internal registers
                      00155 .registers      udata_ovr       0x0000
000000                00156 r0x00   res     1
000001                00157 r0x01   res     1
000002                00158 r0x02   res     1
                      00159 
gpasm-0.14.1 (Aug 18 2017)   libio18f1320_a-uopen.asm8-18-2017  19:25:55          PAGE  4


LOC  OBJECT CODE     LINE SOURCE TEXT
  VALUE

                      00160 ;--------------------------------------------------------
                      00161 ; global & static initialisations
                      00162 ;--------------------------------------------------------
                      00163 ; I code from now on!
                      00164 ; ; Starting pCode block
                      00165 ; ;ic:1:  _entry($20) :
                      00166 ; ;ic:2:        proc _usart_open [k1 lr0:0 so:0]{ ia0 a2p0 re0 rm0 nos0 ru0 dp0}{void function ( unsigned-char fixed, unsigned-int fixed) fixed}
                      00167 S_uopen__usart_open     code
000000                00168 _usart_open:
                      00169 ;       .line   42; usart/uopen.c       usart_open (unsigned char config, sdcc_spbrg_t spbrg) __wparam
000000 CFD9 FFE5      00170         MOVFF   FSR2L, POSTDEC1
000004 CFE1 FFD9      00171         MOVFF   FSR1L, FSR2L
000008 C000 FFE5      00172         MOVFF   r0x00, POSTDEC1
00000C C000 FFE5      00173         MOVFF   r0x01, POSTDEC1
000010 C000 FFE5      00174         MOVFF   r0x02, POSTDEC1
                      00175 ; ;ic:3: iTemp0 [k2 lr3:70 so:0]{ ia0 a2p0 re1 rm0 nos0 ru0 dp0}{unsigned-char fixed}{ sir@ _usart_open_config_1_10}[r0x00 ] = recv _usart_open [k1 lr0:0 so:0]{ ia0 a2p0 re0 rm0 nos0 ru0 dp0}{void function ( unsigned-char fixed, unsigned-int fixed) fixed}
000014 6E00           00176         MOVWF   r0x00
                      00177 ; ;ic:4: iTemp1 [k4 lr4:83 so:0]{ ia0 a2p0 re1 rm0 nos0 ru0 dp0}{unsigned-int fixed}{ sir@ _usart_open_spbrg_1_10}[r0x01 r0x02 ] = recv _usart_open [k1 lr0:0 so:0]{ ia0 a2p0 re0 rm0 nos0 ru0 dp0}{void function ( unsigned-char fixed, unsigned-int fixed) fixed}
000016 0E02           00178         MOVLW   0x02
000018 CFDB F000      00179         MOVFF   PLUSW2, r0x01
00001C 0E03           00180         MOVLW   0x03
00001E CFDB F000      00181         MOVFF   PLUSW2, r0x02
                      00182 ; ;ic:5:        _TXSTA [k6 lr0:0 so:0]{ ia1 a2p0 re0 rm0 nos0 ru0 dp0}{volatile-unsigned-char sfr} := 0x0 {const-unsigned-char literal}
                      00183 ;       .line   44; usart/uopen.c       TXSTA = 0;           // Reset USART registers to POR state
000022 6A00           00184         CLRF    _TXSTA
                      00185 ; ;ic:6:        _RCSTA [k7 lr0:0 so:0]{ ia1 a2p0 re0 rm0 nos0 ru0 dp0}{volatile-unsigned-char sfr} := 0x0 {const-unsigned-char literal}
                      00186 ; #     CLRF    _RCSTA
                      00187 ; #;;ic:7:      iTemp2 [k8 lr7:8 so:0]{ ia0 a2p0 re0 rm0 nos0 ru0 dp0}{unsigned-char register} = iTemp0 [k2 lr3:70 so:0]{ ia0 a2p0 re1 rm0 nos0 ru0 dp0}{unsigned-char fixed}{ sir@ _usart_open_config_1_10}[r0x00 ] & 0x1 {const-unsigned-char literal}
                      00188 ; #     BTFSS   r0x00, 0
                      00189 ; #     GOTO    _00106_DS_
                      00190 ; #;;ic:8:      if iTemp2 [k8 lr7:8 so:0]{ ia0 a2p0 re0 rm0 nos0 ru0 dp0}{unsigned-char register} == 0 goto _iffalse_0($2)
                      00191 ; #;;ic:9:      iTemp3 [k10 lr9:10 so:0]{ ia0 a2p0 re0 rm1 nos0 ru0 dp0}{volatile-unsigned-bitfield {4,1} near* fixed}[remat] = &[_TXSTAbits [k9 lr0:0 so:0]{ ia0 a2p0 re0 rm0 nos0 ru0 dp0}{volatile-struct __00000069 fixed}]
                      00192 ; #;;ic:10:     iTemp4 [k12 lr10:11 so:0]{ ia0 a2p0 re0 rm1 nos0 ru0 dp0}{volatile-unsigned-bitfield {4,1} near* fixed}[remat] := iTemp3 [k10 lr9:10 so:0]{ ia0 a2p0 re0 rm1 nos0 ru0 dp0}{volatile-unsigned-bitfield {4,1} near* fixed}[remat]
                      00193 ; #;;ic:11:     *(iTemp4 [k12 lr10:11 so:0]{ ia1 a2p0 re0 rm1 nos0 ru0 dp0}{volatile-unsigned-bitfield {4,1} near* fixed}[remat]) := 0x1 {const-unsigned-char literal}
                      00194 ; #     BSF     _TXSTAbits, 4
                      00195 ; #;;ic:12:  _iffalse_0($2) :
                      00196 ; #;;ic:13:     iTemp5 [k13 lr13:14 so:0]{ ia0 a2p0 re0 rm0 nos0 ru0 dp0}{unsigned-char register} = iTemp0 [k2 lr3:70 so:0]{ ia0 a2p0 re1 rm0 nos0 ru0 dp0}{unsigned-char fixed}{ sir@ _usart_open_config_1_10}[r0x00 ] & 0x2 {const-unsigned-char literal}
                      00197 ; #     BTFSS   r0x00, 1
                      00198 ;       .line   45; usart/uopen.c       RCSTA = 0;
000024 6A00           00199         CLRF    _RCSTA
                      00200 ;       .line   47; usart/uopen.c       if (config & 0x01)
000026 B000           00201         BTFSC   r0x00, 0
                      00202 ;       .line   48; usart/uopen.c       TXSTAbits.SYNC = 1;
000028 8800           00203         BSF     _TXSTAbits, 4
                      00204 ;       .line   50; usart/uopen.c       if (config & 0x02)
00002A A200           00205         BTFSS   r0x00, 1
00002C D000           00206         BRA     _00108_DS_
                      00207 ; ;ic:14:       if iTemp5 [k13 lr13:14 so:0]{ ia0 a2p0 re0 rm0 nos0 ru0 dp0}{unsigned-char register} == 0 goto _iffalse_1($4)
                      00208 ; ;ic:15:       iTemp6 [k14 lr15:16 so:0]{ ia0 a2p0 re0 rm1 nos0 ru0 dp0}{volatile-unsigned-bitfield {6,1} near* fixed}[remat] = &[_TXSTAbits [k9 lr0:0 so:0]{ ia0 a2p0 re0 rm0 nos0 ru0 dp0}{volatile-struct __00000069 fixed}]
                      00209 ; ;ic:16:       iTemp7 [k16 lr16:17 so:0]{ ia0 a2p0 re0 rm1 nos0 ru0 dp0}{volatile-unsigned-bitfield {6,1} near* fixed}[remat] := iTemp6 [k14 lr15:16 so:0]{ ia0 a2p0 re0 rm1 nos0 ru0 dp0}{volatile-unsigned-bitfield {6,1} near* fixed}[remat]
                      00210 ; ;ic:17:       *(iTemp7 [k16 lr16:17 so:0]{ ia1 a2p0 re0 rm1 nos0 ru0 dp0}{volatile-unsigned-bitfield {6,1} near* fixed}[remat]) := 0x1 {const-unsigned-char literal}
                      00211 ;       .line   52; usart/uopen.c       TXSTAbits.TX9 = 1;
00002E 8C00           00212         BSF     _TXSTAbits, 6
gpasm-0.14.1 (Aug 18 2017)   libio18f1320_a-uopen.asm8-18-2017  19:25:55          PAGE  5


LOC  OBJECT CODE     LINE SOURCE TEXT
  VALUE

                      00213 ; ;ic:18:       iTemp8 [k18 lr18:19 so:0]{ ia0 a2p0 re0 rm1 nos0 ru0 dp0}{volatile-unsigned-bitfield {6,1} near* fixed}[remat] = &[_RCSTAbits [k17 lr0:0 so:0]{ ia0 a2p0 re0 rm0 nos0 ru0 dp0}{volatile-struct __00000067 fixed}]
                      00214 ; ;ic:19:       iTemp9 [k20 lr19:20 so:0]{ ia0 a2p0 re0 rm1 nos0 ru0 dp0}{volatile-unsigned-bitfield {6,1} near* fixed}[remat] := iTemp8 [k18 lr18:19 so:0]{ ia0 a2p0 re0 rm1 nos0 ru0 dp0}{volatile-unsigned-bitfield {6,1} near* fixed}[remat]
                      00215 ; ;ic:20:       *(iTemp9 [k20 lr19:20 so:0]{ ia1 a2p0 re0 rm1 nos0 ru0 dp0}{volatile-unsigned-bitfield {6,1} near* fixed}[remat]) := 0x1 {const-unsigned-char literal}
                      00216 ;       .line   53; usart/uopen.c       RCSTAbits.RX9 = 1;
000030 8C00           00217         BSF     _RCSTAbits, 6
                      00218 ; ;ic:21:  _iffalse_1($4) :
                      00219 ; ;ic:22:       iTemp10 [k21 lr22:23 so:0]{ ia0 a2p0 re0 rm0 nos0 ru0 dp0}{unsigned-char register} = iTemp0 [k2 lr3:70 so:0]{ ia0 a2p0 re1 rm0 nos0 ru0 dp0}{unsigned-char fixed}{ sir@ _usart_open_config_1_10}[r0x00 ] & 0x4 {const-unsigned-char literal}
000032                00220 _00108_DS_:
                      00221 ;       .line   56; usart/uopen.c       if (config & 0x04)
000032 A400           00222         BTFSS   r0x00, 2
000034 D000           00223         BRA     _00110_DS_
                      00224 ; ;ic:23:       if iTemp10 [k21 lr22:23 so:0]{ ia0 a2p0 re0 rm0 nos0 ru0 dp0}{unsigned-char register} == 0 goto _iffalse_2($6)
                      00225 ; ;ic:24:       iTemp11 [k22 lr24:25 so:0]{ ia0 a2p0 re0 rm1 nos0 ru0 dp0}{volatile-unsigned-bitfield {7,1} near* fixed}[remat] = &[_TXSTAbits [k9 lr0:0 so:0]{ ia0 a2p0 re0 rm0 nos0 ru0 dp0}{volatile-struct __00000069 fixed}]
                      00226 ; ;ic:25:       iTemp12 [k24 lr25:26 so:0]{ ia0 a2p0 re0 rm1 nos0 ru0 dp0}{volatile-unsigned-bitfield {7,1} near* fixed}[remat] := iTemp11 [k22 lr24:25 so:0]{ ia0 a2p0 re0 rm1 nos0 ru0 dp0}{volatile-unsigned-bitfield {7,1} near* fixed}[remat]
                      00227 ; ;ic:26:       *(iTemp12 [k24 lr25:26 so:0]{ ia1 a2p0 re0 rm1 nos0 ru0 dp0}{volatile-unsigned-bitfield {7,1} near* fixed}[remat]) := 0x1 {const-unsigned-char literal}
                      00228 ;       .line   57; usart/uopen.c       TXSTAbits.CSRC = 1;
000036 8E00           00229         BSF     _TXSTAbits, 7
                      00230 ; ;ic:27:  _iffalse_2($6) :
                      00231 ; ;ic:28:       iTemp13 [k25 lr28:29 so:0]{ ia0 a2p0 re0 rm0 nos0 ru0 dp0}{unsigned-char register} = iTemp0 [k2 lr3:70 so:0]{ ia0 a2p0 re1 rm0 nos0 ru0 dp0}{unsigned-char fixed}{ sir@ _usart_open_config_1_10}[r0x00 ] & 0x8 {const-unsigned-char literal}
000038                00232 _00110_DS_:
                      00233 ;       .line   59; usart/uopen.c       if (config & 0x08)
000038 A600           00234         BTFSS   r0x00, 3
00003A D000           00235         BRA     _00112_DS_
                      00236 ; ;ic:29:       if iTemp13 [k25 lr28:29 so:0]{ ia0 a2p0 re0 rm0 nos0 ru0 dp0}{unsigned-char register} == 0 goto _iffalse_3($8)
                      00237 ; ;ic:30:       iTemp14 [k26 lr30:31 so:0]{ ia0 a2p0 re0 rm1 nos0 ru0 dp0}{volatile-unsigned-bitfield {4,1} near* fixed}[remat] = &[_RCSTAbits [k17 lr0:0 so:0]{ ia0 a2p0 re0 rm0 nos0 ru0 dp0}{volatile-struct __00000067 fixed}]
                      00238 ; ;ic:31:       iTemp15 [k28 lr31:32 so:0]{ ia0 a2p0 re0 rm1 nos0 ru0 dp0}{volatile-unsigned-bitfield {4,1} near* fixed}[remat] := iTemp14 [k26 lr30:31 so:0]{ ia0 a2p0 re0 rm1 nos0 ru0 dp0}{volatile-unsigned-bitfield {4,1} near* fixed}[remat]
                      00239 ; ;ic:32:       *(iTemp15 [k28 lr31:32 so:0]{ ia1 a2p0 re0 rm1 nos0 ru0 dp0}{volatile-unsigned-bitfield {4,1} near* fixed}[remat]) := 0x1 {const-unsigned-char literal}
                      00240 ;       .line   60; usart/uopen.c       RCSTAbits.CREN = 1;
00003C 8800           00241         BSF     _RCSTAbits, 4
                      00242 ; ;ic:33:        goto _ifend_3($9)
00003E D000           00243         BRA     _00113_DS_
                      00244 ; ;ic:34:  _iffalse_3($8) :
                      00245 ; ;ic:35:       iTemp16 [k29 lr35:36 so:0]{ ia0 a2p0 re0 rm1 nos0 ru0 dp0}{volatile-unsigned-bitfield {5,1} near* fixed}[remat] = &[_RCSTAbits [k17 lr0:0 so:0]{ ia0 a2p0 re0 rm0 nos0 ru0 dp0}{volatile-struct __00000067 fixed}]
                      00246 ; ;ic:36:       iTemp17 [k31 lr36:37 so:0]{ ia0 a2p0 re0 rm1 nos0 ru0 dp0}{volatile-unsigned-bitfield {5,1} near* fixed}[remat] := iTemp16 [k29 lr35:36 so:0]{ ia0 a2p0 re0 rm1 nos0 ru0 dp0}{volatile-unsigned-bitfield {5,1} near* fixed}[remat]
                      00247 ; ;ic:37:       *(iTemp17 [k31 lr36:37 so:0]{ ia1 a2p0 re0 rm1 nos0 ru0 dp0}{volatile-unsigned-bitfield {5,1} near* fixed}[remat]) := 0x1 {const-unsigned-char literal}
000040                00248 _00112_DS_:
                      00249 ;       .line   62; usart/uopen.c       RCSTAbits.SREN = 1;
000040 8A00           00250         BSF     _RCSTAbits, 5
                      00251 ; ;ic:38:  _ifend_3($9) :
                      00252 ; ;ic:39:       iTemp18 [k32 lr39:40 so:0]{ ia0 a2p0 re0 rm0 nos0 ru0 dp0}{unsigned-char register} = iTemp0 [k2 lr3:70 so:0]{ ia0 a2p0 re1 rm0 nos0 ru0 dp0}{unsigned-char fixed}{ sir@ _usart_open_config_1_10}[r0x00 ] & 0x10 {const-unsigned-char literal}
000042                00253 _00113_DS_:
                      00254 ;       .line   64; usart/uopen.c       if (config & 0x10)
000042 A800           00255         BTFSS   r0x00, 4
000044 D000           00256         BRA     _00115_DS_
                      00257 ; ;ic:40:       if iTemp18 [k32 lr39:40 so:0]{ ia0 a2p0 re0 rm0 nos0 ru0 dp0}{unsigned-char register} == 0 goto _iffalse_4($11)
                      00258 ; ;ic:41:       iTemp19 [k33 lr41:42 so:0]{ ia0 a2p0 re0 rm1 nos0 ru0 dp0}{volatile-unsigned-bitfield {2,1} near* fixed}[remat] = &[_TXSTAbits [k9 lr0:0 so:0]{ ia0 a2p0 re0 rm0 nos0 ru0 dp0}{volatile-struct __00000069 fixed}]
                      00259 ; ;ic:42:       iTemp20 [k35 lr42:43 so:0]{ ia0 a2p0 re0 rm1 nos0 ru0 dp0}{volatile-unsigned-bitfield {2,1} near* fixed}[remat] := iTemp19 [k33 lr41:42 so:0]{ ia0 a2p0 re0 rm1 nos0 ru0 dp0}{volatile-unsigned-bitfield {2,1} near* fixed}[remat]
                      00260 ; ;ic:43:       *(iTemp20 [k35 lr42:43 so:0]{ ia1 a2p0 re0 rm1 nos0 ru0 dp0}{volatile-unsigned-bitfield {2,1} near* fixed}[remat]) := 0x1 {const-unsigned-char literal}
                      00261 ;       .line   66; usart/uopen.c       TXSTAbits.BRGH = 1;
000046 8400           00262         BSF     _TXSTAbits, 2
                      00263 ; ;ic:44:       iTemp21 [k37 lr44:45 so:0]{ ia0 a2p0 re0 rm1 nos0 ru0 dp0}{volatile-unsigned-bitfield {3,1} near* fixed}[remat] = &[_BAUDCTLbits [k36 lr0:0 so:0]{ ia0 a2p0 re0 rm0 nos0 ru0 dp0}{volatile-struct __00000062 fixed}]
                      00264 ; ;ic:45:       iTemp22 [k39 lr45:46 so:0]{ ia0 a2p0 re0 rm1 nos0 ru0 dp0}{volatile-unsigned-bitfield {3,1} near* fixed}[remat] := iTemp21 [k37 lr44:45 so:0]{ ia0 a2p0 re0 rm1 nos0 ru0 dp0}{volatile-unsigned-bitfield {3,1} near* fixed}[remat]
                      00265 ; ;ic:46:       *(iTemp22 [k39 lr45:46 so:0]{ ia1 a2p0 re0 rm1 nos0 ru0 dp0}{volatile-unsigned-bitfield {3,1} near* fixed}[remat]) := 0x1 {const-unsigned-char literal}
gpasm-0.14.1 (Aug 18 2017)   libio18f1320_a-uopen.asm8-18-2017  19:25:55          PAGE  6


LOC  OBJECT CODE     LINE SOURCE TEXT
  VALUE

                      00266 ;       .line   68; usart/uopen.c       BAUDCONbits.BRG16 = 1;
000048 8600           00267         BSF     _BAUDCTLbits, 3
                      00268 ; ;ic:47:        goto _ifend_4($12)
00004A D000           00269         BRA     _00116_DS_
                      00270 ; ;ic:48:  _iffalse_4($11) :
                      00271 ; ;ic:49:       iTemp23 [k40 lr49:50 so:0]{ ia0 a2p0 re0 rm1 nos0 ru0 dp0}{volatile-unsigned-bitfield {3,1} near* fixed}[remat] = &[_BAUDCTLbits [k36 lr0:0 so:0]{ ia0 a2p0 re0 rm0 nos0 ru0 dp0}{volatile-struct __00000062 fixed}]
                      00272 ; ;ic:50:       iTemp24 [k42 lr50:51 so:0]{ ia0 a2p0 re0 rm1 nos0 ru0 dp0}{volatile-unsigned-bitfield {3,1} near* fixed}[remat] := iTemp23 [k40 lr49:50 so:0]{ ia0 a2p0 re0 rm1 nos0 ru0 dp0}{volatile-unsigned-bitfield {3,1} near* fixed}[remat]
                      00273 ; ;ic:51:       *(iTemp24 [k42 lr50:51 so:0]{ ia1 a2p0 re0 rm1 nos0 ru0 dp0}{volatile-unsigned-bitfield {3,1} near* fixed}[remat]) := 0x0 {const-unsigned-char literal}
00004C                00274 _00115_DS_:
                      00275 ;       .line   72; usart/uopen.c       BAUDCONbits.BRG16 = 0;
00004C 9600           00276         BCF     _BAUDCTLbits, 3
                      00277 ; ;ic:52:  _ifend_4($12) :
                      00278 ; ;ic:53:       iTemp25 [k44 lr53:54 so:0]{ ia0 a2p0 re0 rm1 nos0 ru0 dp0}{volatile-unsigned-bitfield {4,1} near* fixed}[remat] = &[_PIR1bits [k43 lr0:0 so:0]{ ia0 a2p0 re0 rm0 nos0 ru0 dp0}{volatile-struct __00000037 fixed}]
                      00279 ; ;ic:54:       iTemp26 [k46 lr54:55 so:0]{ ia0 a2p0 re0 rm1 nos0 ru0 dp0}{volatile-unsigned-bitfield {4,1} near* fixed}[remat] := iTemp25 [k44 lr53:54 so:0]{ ia0 a2p0 re0 rm1 nos0 ru0 dp0}{volatile-unsigned-bitfield {4,1} near* fixed}[remat]
                      00280 ; ;ic:55:       *(iTemp26 [k46 lr54:55 so:0]{ ia1 a2p0 re0 rm1 nos0 ru0 dp0}{volatile-unsigned-bitfield {4,1} near* fixed}[remat]) := 0x0 {const-unsigned-char literal}
00004E                00281 _00116_DS_:
                      00282 ;       .line   87; usart/uopen.c       PIR1bits.TXIF = 0;
00004E 9800           00283         BCF     _PIR1bits, 4
                      00284 ; ;ic:56:       iTemp27 [k47 lr56:57 so:0]{ ia0 a2p0 re0 rm0 nos0 ru0 dp0}{unsigned-char register} = iTemp0 [k2 lr3:70 so:0]{ ia0 a2p0 re1 rm0 nos0 ru0 dp0}{unsigned-char fixed}{ sir@ _usart_open_config_1_10}[r0x00 ] & 0x40 {const-unsigned-char literal}
                      00285 ;       .line   91; usart/uopen.c       if (config & 0x40)
000050 AC00           00286         BTFSS   r0x00, 6
000052 D000           00287         BRA     _00118_DS_
                      00288 ; ;ic:57:       if iTemp27 [k47 lr56:57 so:0]{ ia0 a2p0 re0 rm0 nos0 ru0 dp0}{unsigned-char register} == 0 goto _iffalse_5($14)
                      00289 ; ;ic:58:       iTemp28 [k49 lr58:59 so:0]{ ia0 a2p0 re0 rm1 nos0 ru0 dp0}{volatile-unsigned-bitfield {5,1} near* fixed}[remat] = &[_PIE1bits [k48 lr0:0 so:0]{ ia0 a2p0 re0 rm0 nos0 ru0 dp0}{volatile-struct __00000035 fixed}]
                      00290 ; ;ic:59:       iTemp29 [k51 lr59:60 so:0]{ ia0 a2p0 re0 rm1 nos0 ru0 dp0}{volatile-unsigned-bitfield {5,1} near* fixed}[remat] := iTemp28 [k49 lr58:59 so:0]{ ia0 a2p0 re0 rm1 nos0 ru0 dp0}{volatile-unsigned-bitfield {5,1} near* fixed}[remat]
                      00291 ; ;ic:60:       *(iTemp29 [k51 lr59:60 so:0]{ ia1 a2p0 re0 rm1 nos0 ru0 dp0}{volatile-unsigned-bitfield {5,1} near* fixed}[remat]) := 0x1 {const-unsigned-char literal}
                      00292 ;       .line   92; usart/uopen.c       PIE1bits.RCIE = 1;
000054 8A00           00293         BSF     _PIE1bits, 5
                      00294 ; ;ic:61:        goto _ifend_5($15)
000056 D000           00295         BRA     _00119_DS_
                      00296 ; ;ic:62:  _iffalse_5($14) :
                      00297 ; ;ic:63:       iTemp30 [k52 lr63:64 so:0]{ ia0 a2p0 re0 rm1 nos0 ru0 dp0}{volatile-unsigned-bitfield {5,1} near* fixed}[remat] = &[_PIE1bits [k48 lr0:0 so:0]{ ia0 a2p0 re0 rm0 nos0 ru0 dp0}{volatile-struct __00000035 fixed}]
                      00298 ; ;ic:64:       iTemp31 [k54 lr64:65 so:0]{ ia0 a2p0 re0 rm1 nos0 ru0 dp0}{volatile-unsigned-bitfield {5,1} near* fixed}[remat] := iTemp30 [k52 lr63:64 so:0]{ ia0 a2p0 re0 rm1 nos0 ru0 dp0}{volatile-unsigned-bitfield {5,1} near* fixed}[remat]
                      00299 ; ;ic:65:       *(iTemp31 [k54 lr64:65 so:0]{ ia1 a2p0 re0 rm1 nos0 ru0 dp0}{volatile-unsigned-bitfield {5,1} near* fixed}[remat]) := 0x0 {const-unsigned-char literal}
000058                00300 _00118_DS_:
                      00301 ;       .line   94; usart/uopen.c       PIE1bits.RCIE = 0;
000058 9A00           00302         BCF     _PIE1bits, 5
                      00303 ; ;ic:66:  _ifend_5($15) :
                      00304 ; ;ic:67:       iTemp32 [k55 lr67:68 so:0]{ ia0 a2p0 re0 rm1 nos0 ru0 dp0}{volatile-unsigned-bitfield {5,1} near* fixed}[remat] = &[_PIR1bits [k43 lr0:0 so:0]{ ia0 a2p0 re0 rm0 nos0 ru0 dp0}{volatile-struct __00000037 fixed}]
                      00305 ; ;ic:68:       iTemp33 [k57 lr68:69 so:0]{ ia0 a2p0 re0 rm1 nos0 ru0 dp0}{volatile-unsigned-bitfield {5,1} near* fixed}[remat] := iTemp32 [k55 lr67:68 so:0]{ ia0 a2p0 re0 rm1 nos0 ru0 dp0}{volatile-unsigned-bitfield {5,1} near* fixed}[remat]
                      00306 ; ;ic:69:       *(iTemp33 [k57 lr68:69 so:0]{ ia1 a2p0 re0 rm1 nos0 ru0 dp0}{volatile-unsigned-bitfield {5,1} near* fixed}[remat]) := 0x0 {const-unsigned-char literal}
00005A                00307 _00119_DS_:
                      00308 ;       .line   97; usart/uopen.c       PIR1bits.RCIF = 0;
00005A 9A00           00309         BCF     _PIR1bits, 5
                      00310 ; ;ic:70:       iTemp34 [k58 lr70:71 so:0]{ ia0 a2p0 re0 rm0 nos0 ru0 dp0}{unsigned-char register} = iTemp0 [k2 lr3:70 so:0]{ ia0 a2p0 re1 rm0 nos0 ru0 dp0}{unsigned-char fixed}{ sir@ _usart_open_config_1_10}[r0x00 ] & 0x80 {const-unsigned-char literal}
                      00311 ;       .line   112; usart/uopen.c      if (config & 0x80)
00005C AE00           00312         BTFSS   r0x00, 7
00005E D000           00313         BRA     _00121_DS_
                      00314 ; ;ic:71:       if iTemp34 [k58 lr70:71 so:0]{ ia0 a2p0 re0 rm0 nos0 ru0 dp0}{unsigned-char register} == 0 goto _iffalse_6($17)
                      00315 ; ;ic:72:       iTemp35 [k59 lr72:73 so:0]{ ia0 a2p0 re0 rm1 nos0 ru0 dp0}{volatile-unsigned-bitfield {4,1} near* fixed}[remat] = &[_PIE1bits [k48 lr0:0 so:0]{ ia0 a2p0 re0 rm0 nos0 ru0 dp0}{volatile-struct __00000035 fixed}]
                      00316 ; ;ic:73:       iTemp36 [k61 lr73:74 so:0]{ ia0 a2p0 re0 rm1 nos0 ru0 dp0}{volatile-unsigned-bitfield {4,1} near* fixed}[remat] := iTemp35 [k59 lr72:73 so:0]{ ia0 a2p0 re0 rm1 nos0 ru0 dp0}{volatile-unsigned-bitfield {4,1} near* fixed}[remat]
                      00317 ; ;ic:74:       *(iTemp36 [k61 lr73:74 so:0]{ ia1 a2p0 re0 rm1 nos0 ru0 dp0}{volatile-unsigned-bitfield {4,1} near* fixed}[remat]) := 0x1 {const-unsigned-char literal}
                      00318 ;       .line   113; usart/uopen.c      PIE1bits.TXIE = 1;
gpasm-0.14.1 (Aug 18 2017)   libio18f1320_a-uopen.asm8-18-2017  19:25:55          PAGE  7


LOC  OBJECT CODE     LINE SOURCE TEXT
  VALUE

000060 8800           00319         BSF     _PIE1bits, 4
                      00320 ; ;ic:75:        goto _ifend_6($18)
000062 D000           00321         BRA     _00122_DS_
                      00322 ; ;ic:76:  _iffalse_6($17) :
                      00323 ; ;ic:77:       iTemp37 [k62 lr77:78 so:0]{ ia0 a2p0 re0 rm1 nos0 ru0 dp0}{volatile-unsigned-bitfield {4,1} near* fixed}[remat] = &[_PIE1bits [k48 lr0:0 so:0]{ ia0 a2p0 re0 rm0 nos0 ru0 dp0}{volatile-struct __00000035 fixed}]
                      00324 ; ;ic:78:       iTemp38 [k64 lr78:79 so:0]{ ia0 a2p0 re0 rm1 nos0 ru0 dp0}{volatile-unsigned-bitfield {4,1} near* fixed}[remat] := iTemp37 [k62 lr77:78 so:0]{ ia0 a2p0 re0 rm1 nos0 ru0 dp0}{volatile-unsigned-bitfield {4,1} near* fixed}[remat]
                      00325 ; ;ic:79:       *(iTemp38 [k64 lr78:79 so:0]{ ia1 a2p0 re0 rm1 nos0 ru0 dp0}{volatile-unsigned-bitfield {4,1} near* fixed}[remat]) := 0x0 {const-unsigned-char literal}
000064                00326 _00121_DS_:
                      00327 ;       .line   115; usart/uopen.c      PIE1bits.TXIE = 0;
000064 9800           00328         BCF     _PIE1bits, 4
                      00329 ; ;ic:80:  _ifend_6($18) :
                      00330 ; ;ic:81:       iTemp39 [k66 lr81:82 so:0]{ ia0 a2p0 re0 rm0 nos0 ru0 dp0}{unsigned-int fixed}[r0x00 r0x03 ] = iTemp1 [k4 lr4:83 so:0]{ ia0 a2p0 re1 rm0 nos0 ru0 dp0}{unsigned-int fixed}{ sir@ _usart_open_spbrg_1_10}[r0x01 r0x02 ] >> 0x8 {const-unsigned-char literal}
000066                00331 _00122_DS_:
                      00332 ;       .line   120; usart/uopen.c      SPBRGH = (spbrg >> 8);
000066 5000           00333         MOVF    r0x02, W
                      00334 ; ;ic:82:       _SPBRGH [k65 lr0:0 so:0]{ ia1 a2p0 re0 rm0 nos0 ru0 dp0}{volatile-unsigned-char sfr} = (volatile-unsigned-char sfr)iTemp39 [k66 lr81:82 so:0]{ ia0 a2p0 re0 rm0 nos0 ru0 dp0}{unsigned-int fixed}[r0x00 r0x03 ]
000068 6E00           00335         MOVWF   _SPBRGH
                      00336 ; ;ic:83:       _SPBRG [k68 lr0:0 so:0]{ ia1 a2p0 re0 rm0 nos0 ru0 dp0}{volatile-unsigned-char sfr} = (volatile-unsigned-char sfr)iTemp1 [k4 lr4:83 so:0]{ ia0 a2p0 re1 rm0 nos0 ru0 dp0}{unsigned-int fixed}{ sir@ _usart_open_spbrg_1_10}[r0x01 r0x02 ]
                      00337 ;       .line   122; usart/uopen.c      SPBRG = spbrg;
00006A 5000           00338         MOVF    r0x01, W
00006C 6E00           00339         MOVWF   _SPBRG
                      00340 ; ;ic:84:       iTemp42 [k71 lr84:85 so:0]{ ia0 a2p0 re0 rm1 nos0 ru0 dp0}{volatile-unsigned-bitfield {5,1} near* fixed}[remat] = &[_ADCON1bits [k70 lr0:0 so:0]{ ia0 a2p0 re0 rm0 nos0 ru0 dp0}{volatile-struct __00000081 fixed}]
                      00341 ; ;ic:85:       iTemp43 [k73 lr85:86 so:0]{ ia0 a2p0 re0 rm1 nos0 ru0 dp0}{volatile-unsigned-bitfield {5,1} near* fixed}[remat] := iTemp42 [k71 lr84:85 so:0]{ ia0 a2p0 re0 rm1 nos0 ru0 dp0}{volatile-unsigned-bitfield {5,1} near* fixed}[remat]
                      00342 ; ;ic:86:       *(iTemp43 [k73 lr85:86 so:0]{ ia1 a2p0 re0 rm1 nos0 ru0 dp0}{volatile-unsigned-bitfield {5,1} near* fixed}[remat]) := 0x1 {const-unsigned-char literal}
                      00343 ;       .line   126; usart/uopen.c      ADCON1bits.PCFG5 = 1;
00006E 8A00           00344         BSF     _ADCON1bits, 5
                      00345 ; ;ic:87:       iTemp44 [k74 lr87:88 so:0]{ ia0 a2p0 re0 rm1 nos0 ru0 dp0}{volatile-unsigned-bitfield {6,1} near* fixed}[remat] = &[_ADCON1bits [k70 lr0:0 so:0]{ ia0 a2p0 re0 rm0 nos0 ru0 dp0}{volatile-struct __00000081 fixed}]
                      00346 ; ;ic:88:       iTemp45 [k76 lr88:89 so:0]{ ia0 a2p0 re0 rm1 nos0 ru0 dp0}{volatile-unsigned-bitfield {6,1} near* fixed}[remat] := iTemp44 [k74 lr87:88 so:0]{ ia0 a2p0 re0 rm1 nos0 ru0 dp0}{volatile-unsigned-bitfield {6,1} near* fixed}[remat]
                      00347 ; ;ic:89:       *(iTemp45 [k76 lr88:89 so:0]{ ia1 a2p0 re0 rm1 nos0 ru0 dp0}{volatile-unsigned-bitfield {6,1} near* fixed}[remat]) := 0x1 {const-unsigned-char literal}
                      00348 ;       .line   127; usart/uopen.c      ADCON1bits.PCFG6 = 1;
000070 8C00           00349         BSF     _ADCON1bits, 6
                      00350 ; ;ic:90:       iTemp46 [k78 lr90:91 so:0]{ ia0 a2p0 re0 rm1 nos0 ru0 dp0}{volatile-unsigned-bitfield {1,1} near* fixed}[remat] = &[_TRISBbits [k77 lr0:0 so:0]{ ia0 a2p0 re0 rm0 nos0 ru0 dp0}{volatile-struct __00000033 fixed}]
                      00351 ; ;ic:91:       iTemp47 [k80 lr91:92 so:0]{ ia0 a2p0 re0 rm1 nos0 ru0 dp0}{volatile-unsigned-bitfield {1,1} near* fixed}[remat] := iTemp46 [k78 lr90:91 so:0]{ ia0 a2p0 re0 rm1 nos0 ru0 dp0}{volatile-unsigned-bitfield {1,1} near* fixed}[remat]
                      00352 ; ;ic:92:       *(iTemp47 [k80 lr91:92 so:0]{ ia1 a2p0 re0 rm1 nos0 ru0 dp0}{volatile-unsigned-bitfield {1,1} near* fixed}[remat]) := 0x1 {const-unsigned-char literal}
                      00353 ;       .line   130; usart/uopen.c      TRISBbits.TRISB1 = 1;
000072 8200           00354         BSF     _TRISBbits, 1
                      00355 ; ;ic:93:       iTemp48 [k81 lr93:94 so:0]{ ia0 a2p0 re0 rm1 nos0 ru0 dp0}{volatile-unsigned-bitfield {4,1} near* fixed}[remat] = &[_TRISBbits [k77 lr0:0 so:0]{ ia0 a2p0 re0 rm0 nos0 ru0 dp0}{volatile-struct __00000033 fixed}]
                      00356 ; ;ic:94:       iTemp49 [k83 lr94:95 so:0]{ ia0 a2p0 re0 rm1 nos0 ru0 dp0}{volatile-unsigned-bitfield {4,1} near* fixed}[remat] := iTemp48 [k81 lr93:94 so:0]{ ia0 a2p0 re0 rm1 nos0 ru0 dp0}{volatile-unsigned-bitfield {4,1} near* fixed}[remat]
                      00357 ; ;ic:95:       *(iTemp49 [k83 lr94:95 so:0]{ ia1 a2p0 re0 rm1 nos0 ru0 dp0}{volatile-unsigned-bitfield {4,1} near* fixed}[remat]) := 0x1 {const-unsigned-char literal}
                      00358 ;       .line   131; usart/uopen.c      TRISBbits.TRISB4 = 1;
000074 8800           00359         BSF     _TRISBbits, 4
                      00360 ; ;ic:96:       iTemp50 [k84 lr96:97 so:0]{ ia0 a2p0 re0 rm1 nos0 ru0 dp0}{volatile-unsigned-bitfield {5,1} near* fixed}[remat] = &[_TXSTAbits [k9 lr0:0 so:0]{ ia0 a2p0 re0 rm0 nos0 ru0 dp0}{volatile-struct __00000069 fixed}]
                      00361 ; ;ic:97:       iTemp51 [k86 lr97:98 so:0]{ ia0 a2p0 re0 rm1 nos0 ru0 dp0}{volatile-unsigned-bitfield {5,1} near* fixed}[remat] := iTemp50 [k84 lr96:97 so:0]{ ia0 a2p0 re0 rm1 nos0 ru0 dp0}{volatile-unsigned-bitfield {5,1} near* fixed}[remat]
                      00362 ; ;ic:98:       *(iTemp51 [k86 lr97:98 so:0]{ ia1 a2p0 re0 rm1 nos0 ru0 dp0}{volatile-unsigned-bitfield {5,1} near* fixed}[remat]) := 0x1 {const-unsigned-char literal}
                      00363 ;       .line   164; usart/uopen.c      TXSTAbits.TXEN = 1;
000076 8A00           00364         BSF     _TXSTAbits, 5
                      00365 ; ;ic:99:       iTemp52 [k87 lr99:100 so:0]{ ia0 a2p0 re0 rm1 nos0 ru0 dp0}{volatile-unsigned-bitfield {7,1} near* fixed}[remat] = &[_RCSTAbits [k17 lr0:0 so:0]{ ia0 a2p0 re0 rm0 nos0 ru0 dp0}{volatile-struct __00000067 fixed}]
                      00366 ; ;ic:100:      iTemp53 [k89 lr100:101 so:0]{ ia0 a2p0 re0 rm1 nos0 ru0 dp0}{volatile-unsigned-bitfield {7,1} near* fixed}[remat] := iTemp52 [k87 lr99:100 so:0]{ ia0 a2p0 re0 rm1 nos0 ru0 dp0}{volatile-unsigned-bitfield {7,1} near* fixed}[remat]
                      00367 ; ;ic:101:      *(iTemp53 [k89 lr100:101 so:0]{ ia1 a2p0 re0 rm1 nos0 ru0 dp0}{volatile-unsigned-bitfield {7,1} near* fixed}[remat]) := 0x1 {const-unsigned-char literal}
                      00368 ;       .line   165; usart/uopen.c      RCSTAbits.SPEN = 1;
000078 8E00           00369         BSF     _RCSTAbits, 7
                      00370 ; ;ic:102:  _return($19) :
                      00371 ; ;ic:103:      eproc _usart_open [k1 lr0:0 so:0]{ ia0 a2p0 re0 rm0 nos0 ru0 dp0}{void function ( unsigned-char fixed, unsigned-int fixed) fixed}
gpasm-0.14.1 (Aug 18 2017)   libio18f1320_a-uopen.asm8-18-2017  19:25:55          PAGE  8


LOC  OBJECT CODE     LINE SOURCE TEXT
  VALUE

00007A CFE4 F000      00372         MOVFF   PREINC1, r0x02
00007E CFE4 F000      00373         MOVFF   PREINC1, r0x01
000082 CFE4 F000      00374         MOVFF   PREINC1, r0x00
000086 CFE4 FFD9      00375         MOVFF   PREINC1, FSR2L
00008A 0012           00376         RETURN  
                      00377 
                      00378 
                      00379 
                      00380 ; Statistics:
                      00381 ; code size:      140 (0x008c) bytes ( 0.11%)
                      00382 ;                  70 (0x0046) words
                      00383 ; udata size:       0 (0x0000) bytes ( 0.00%)
                      00384 ; access size:      3 (0x0003) bytes
                      00385 
                      00386 
                      00387         end
gpasm-0.14.1 (Aug 18 2017)   libio18f1320_a-uopen.asm8-18-2017  19:25:55          PAGE  9


SYMBOL TABLE
  LABEL                             VALUE

FSR1L                             00000FE1
FSR2L                             00000FD9
PLUSW2                            00000FDB
POSTDEC1                          00000FE5
PREINC1                           00000FE4
_00108_DS_                        00000032
_00110_DS_                        00000038
_00112_DS_                        00000040
_00113_DS_                        00000042
_00115_DS_                        0000004C
_00116_DS_                        0000004E
_00118_DS_                        00000058
_00119_DS_                        0000005A
_00121_DS_                        00000064
_00122_DS_                        00000066
_ADCON0                           00000000
_ADCON0bits                       00000000
_ADCON1                           00000000
_ADCON1bits                       00000000
_ADCON2                           00000000
_ADCON2bits                       00000000
_ADRESH                           00000000
_ADRESL                           00000000
_BAUDCTL                          00000000
_BAUDCTLbits                      00000000
_BSR                              00000000
_CCP1CON                          00000000
_CCP1CONbits                      00000000
_CCPR1H                           00000000
_CCPR1L                           00000000
_ECCPAS                           00000000
_ECCPASbits                       00000000
_EEADR                            00000000
_EECON1                           00000000
_EECON1bits                       00000000
_EECON2                           00000000
_EEDATA                           00000000
_FSR0H                            00000000
_FSR0L                            00000000
_FSR1H                            00000000
_FSR1L                            00000000
_FSR2H                            00000000
_FSR2L                            00000000
_INDF0                            00000000
_INDF1                            00000000
_INDF2                            00000000
_INTCON                           00000000
_INTCON2                          00000000
_INTCON2bits                      00000000
_INTCON3                          00000000
_INTCON3bits                      00000000
_INTCONbits                       00000000
_IPR1                             00000000
gpasm-0.14.1 (Aug 18 2017)   libio18f1320_a-uopen.asm8-18-2017  19:25:55          PAGE 10


SYMBOL TABLE
  LABEL                             VALUE 

_IPR1bits                         00000000
_IPR2                             00000000
_IPR2bits                         00000000
_LATA                             00000000
_LATAbits                         00000000
_LATB                             00000000
_LATBbits                         00000000
_LVDCON                           00000000
_LVDCONbits                       00000000
_OSCCON                           00000000
_OSCCONbits                       00000000
_PCL                              00000000
_PCLATH                           00000000
_PCLATU                           00000000
_PIE1                             00000000
_PIE1bits                         00000000
_PIE2                             00000000
_PIE2bits                         00000000
_PIR1                             00000000
_PIR1bits                         00000000
_PIR2                             00000000
_PIR2bits                         00000000
_PLUSW0                           00000000
_PLUSW1                           00000000
_PLUSW2                           00000000
_PORTA                            00000000
_PORTAbits                        00000000
_PORTB                            00000000
_PORTBbits                        00000000
_POSTDEC0                         00000000
_POSTDEC1                         00000000
_POSTDEC2                         00000000
_POSTINC0                         00000000
_POSTINC1                         00000000
_POSTINC2                         00000000
_PR2                              00000000
_PREINC0                          00000000
_PREINC1                          00000000
_PREINC2                          00000000
_PRODH                            00000000
_PRODL                            00000000
_RCON                             00000000
_RCONbits                         00000000
_RCREG                            00000000
_RCSTA                            00000000
_RCSTAbits                        00000000
_SPBRG                            00000000
_SPBRGH                           00000000
_STATUS                           00000000
_STATUSbits                       00000000
_STKPTR                           00000000
_STKPTRbits                       00000000
_T0CON                            00000000
gpasm-0.14.1 (Aug 18 2017)   libio18f1320_a-uopen.asm8-18-2017  19:25:55          PAGE 11


SYMBOL TABLE
  LABEL                             VALUE 

_T0CONbits                        00000000
_T1CON                            00000000
_T1CONbits                        00000000
_T2CON                            00000000
_T2CONbits                        00000000
_T3CON                            00000000
_T3CONbits                        00000000
_TABLAT                           00000000
_TBLPTRH                          00000000
_TBLPTRL                          00000000
_TBLPTRU                          00000000
_TMR0H                            00000000
_TMR0L                            00000000
_TMR1H                            00000000
_TMR1L                            00000000
_TMR2                             00000000
_TMR3H                            00000000
_TMR3L                            00000000
_TOSH                             00000000
_TOSL                             00000000
_TOSU                             00000000
_TRISA                            00000000
_TRISAbits                        00000000
_TRISB                            00000000
_TRISBbits                        00000000
_TXREG                            00000000
_TXSTA                            00000000
_TXSTAbits                        00000000
_USART_Status                     00000000
_WDTCON                           00000000
_WDTCONbits                       00000000
_WREG                             00000000
__18F1320                         00000001
_usart_open                       00000000
r0x00                             00000000
r0x01                             00000001
r0x02                             00000002

Errors   :     0
Warnings :     0 reported,     0 suppressed
Messages :     0 reported,     0 suppressed

