gpasm-0.14.1 (Aug 18 2017)   libio18f13k50_a-uopen.asm8-18-2017  19:26:50          PAGE  1


LOC  OBJECT CODE     LINE SOURCE TEXT
  VALUE

                      00001 ;--------------------------------------------------------
                      00002 ; File Created by SDCC : free open source ANSI-C Compiler
                      00003 ; Version 3.2.0 #8004 (Aug 18 2017) (MINGW32)
                      00004 ; This file was generated Fri Aug 18 19:26:50 2017
                      00005 ;--------------------------------------------------------
                      00006 ; PIC16 port for the Microchip 16-bit core micros
                      00007 ;--------------------------------------------------------
                      00008         list    p=18f13k50
                      00009 
                      00010         radix dec
                      00011 
                      00012 ;--------------------------------------------------------
                      00013 ; public variables in this module
                      00014 ;--------------------------------------------------------
                      00015         global  _usart_open
                      00016 
                      00017 ;--------------------------------------------------------
                      00018 ; extern variables in this module
                      00019 ;--------------------------------------------------------
                      00020         extern  _UEP0bits
                      00021         extern  _UEP1bits
                      00022         extern  _UEP2bits
                      00023         extern  _UEP3bits
                      00024         extern  _UEP4bits
                      00025         extern  _UEP5bits
                      00026         extern  _UEP6bits
                      00027         extern  _UEP7bits
                      00028         extern  _UEIEbits
                      00029         extern  _UADDRbits
                      00030         extern  _UFRMLbits
                      00031         extern  _UFRMHbits
                      00032         extern  _UEIRbits
                      00033         extern  _UIEbits
                      00034         extern  _UCFGbits
                      00035         extern  _UIRbits
                      00036         extern  _USTATbits
                      00037         extern  _UCONbits
                      00038         extern  _SRCON0bits
                      00039         extern  _SRCON1bits
                      00040         extern  _CM2CON0bits
                      00041         extern  _CM2CON1bits
                      00042         extern  _CM1CON0bits
                      00043         extern  _SSPMSKbits
                      00044         extern  _SLRCONbits
                      00045         extern  _WPUAbits
                      00046         extern  _WPUBbits
                      00047         extern  _IOCAbits
                      00048         extern  _IOCBbits
                      00049         extern  _ANSELbits
                      00050         extern  _ANSELHbits
                      00051         extern  _PORTAbits
                      00052         extern  _PORTBbits
                      00053         extern  _PORTCbits
gpasm-0.14.1 (Aug 18 2017)   libio18f13k50_a-uopen.asm8-18-2017  19:26:50          PAGE  2


LOC  OBJECT CODE     LINE SOURCE TEXT
  VALUE

                      00054         extern  _LATAbits
                      00055         extern  _LATBbits
                      00056         extern  _LATCbits
                      00057         extern  _DDRAbits
                      00058         extern  _TRISAbits
                      00059         extern  _DDRBbits
                      00060         extern  _TRISBbits
                      00061         extern  _DDRCbits
                      00062         extern  _TRISCbits
                      00063         extern  _OSCTUNEbits
                      00064         extern  _PIE1bits
                      00065         extern  _PIR1bits
                      00066         extern  _IPR1bits
                      00067         extern  _PIE2bits
                      00068         extern  _PIR2bits
                      00069         extern  _IPR2bits
                      00070         extern  _EECON1bits
                      00071         extern  _EEADRbits
                      00072         extern  _EEADRHbits
                      00073         extern  _RCSTAbits
                      00074         extern  _TXSTAbits
                      00075         extern  _T3CONbits
                      00076         extern  _ECCP1ASbits
                      00077         extern  _PWM1CONbits
                      00078         extern  _BAUDCONbits
                      00079         extern  _BAUDCTLbits
                      00080         extern  _PSTRCONbits
                      00081         extern  _REFCON0bits
                      00082         extern  _VREFCON0bits
                      00083         extern  _REFCON1bits
                      00084         extern  _VREFCON1bits
                      00085         extern  _REFCON2bits
                      00086         extern  _VREFCON2bits
                      00087         extern  _CCP1CONbits
                      00088         extern  _ADCON2bits
                      00089         extern  _ADCON1bits
                      00090         extern  _ADCON0bits
                      00091         extern  _SSPCON2bits
                      00092         extern  _SSPCON1bits
                      00093         extern  _SSPSTATbits
                      00094         extern  _T2CONbits
                      00095         extern  _T1CONbits
                      00096         extern  _RCONbits
                      00097         extern  _WDTCONbits
                      00098         extern  _OSCCON2bits
                      00099         extern  _OSCCONbits
                      00100         extern  _T0CONbits
                      00101         extern  _STATUSbits
                      00102         extern  _INTCON3bits
                      00103         extern  _INTCON2bits
                      00104         extern  _INTCONbits
                      00105         extern  _STKPTRbits
                      00106         extern  _USART_Status
gpasm-0.14.1 (Aug 18 2017)   libio18f13k50_a-uopen.asm8-18-2017  19:26:50          PAGE  3


LOC  OBJECT CODE     LINE SOURCE TEXT
  VALUE

                      00107         extern  _UEP0
                      00108         extern  _UEP1
                      00109         extern  _UEP2
                      00110         extern  _UEP3
                      00111         extern  _UEP4
                      00112         extern  _UEP5
                      00113         extern  _UEP6
                      00114         extern  _UEP7
                      00115         extern  _UEIE
                      00116         extern  _UADDR
                      00117         extern  _UFRML
                      00118         extern  _UFRMH
                      00119         extern  _UEIR
                      00120         extern  _UIE
                      00121         extern  _UCFG
                      00122         extern  _UIR
                      00123         extern  _USTAT
                      00124         extern  _UCON
                      00125         extern  _SRCON0
                      00126         extern  _SRCON1
                      00127         extern  _CM2CON0
                      00128         extern  _CM2CON1
                      00129         extern  _CM1CON0
                      00130         extern  _SSPMSK
                      00131         extern  _SLRCON
                      00132         extern  _WPUA
                      00133         extern  _WPUB
                      00134         extern  _IOCA
                      00135         extern  _IOCB
                      00136         extern  _ANSEL
                      00137         extern  _ANSELH
                      00138         extern  _PORTA
                      00139         extern  _PORTB
                      00140         extern  _PORTC
                      00141         extern  _LATA
                      00142         extern  _LATB
                      00143         extern  _LATC
                      00144         extern  _DDRA
                      00145         extern  _TRISA
                      00146         extern  _DDRB
                      00147         extern  _TRISB
                      00148         extern  _DDRC
                      00149         extern  _TRISC
                      00150         extern  _OSCTUNE
                      00151         extern  _PIE1
                      00152         extern  _PIR1
                      00153         extern  _IPR1
                      00154         extern  _PIE2
                      00155         extern  _PIR2
                      00156         extern  _IPR2
                      00157         extern  _EECON1
                      00158         extern  _EECON2
                      00159         extern  _EEDATA
gpasm-0.14.1 (Aug 18 2017)   libio18f13k50_a-uopen.asm8-18-2017  19:26:50          PAGE  4


LOC  OBJECT CODE     LINE SOURCE TEXT
  VALUE

                      00160         extern  _EEADR
                      00161         extern  _EEADRH
                      00162         extern  _RCSTA
                      00163         extern  _TXSTA
                      00164         extern  _TXREG
                      00165         extern  _RCREG
                      00166         extern  _SPBRG
                      00167         extern  _SPBRGH
                      00168         extern  _T3CON
                      00169         extern  _TMR3L
                      00170         extern  _TMR3H
                      00171         extern  _ECCP1AS
                      00172         extern  _PWM1CON
                      00173         extern  _BAUDCON
                      00174         extern  _BAUDCTL
                      00175         extern  _PSTRCON
                      00176         extern  _REFCON0
                      00177         extern  _VREFCON0
                      00178         extern  _REFCON1
                      00179         extern  _VREFCON1
                      00180         extern  _REFCON2
                      00181         extern  _VREFCON2
                      00182         extern  _CCP1CON
                      00183         extern  _CCPR1
                      00184         extern  _CCPR1L
                      00185         extern  _CCPR1H
                      00186         extern  _ADCON2
                      00187         extern  _ADCON1
                      00188         extern  _ADCON0
                      00189         extern  _ADRES
                      00190         extern  _ADRESL
                      00191         extern  _ADRESH
                      00192         extern  _SSPCON2
                      00193         extern  _SSPCON1
                      00194         extern  _SSPSTAT
                      00195         extern  _SSPADD
                      00196         extern  _SSPBUF
                      00197         extern  _T2CON
                      00198         extern  _PR2
                      00199         extern  _TMR2
                      00200         extern  _T1CON
                      00201         extern  _TMR1L
                      00202         extern  _TMR1H
                      00203         extern  _RCON
                      00204         extern  _WDTCON
                      00205         extern  _OSCCON2
                      00206         extern  _OSCCON
                      00207         extern  _T0CON
                      00208         extern  _TMR0L
                      00209         extern  _TMR0H
                      00210         extern  _STATUS
                      00211         extern  _FSR2L
                      00212         extern  _FSR2H
gpasm-0.14.1 (Aug 18 2017)   libio18f13k50_a-uopen.asm8-18-2017  19:26:50          PAGE  5


LOC  OBJECT CODE     LINE SOURCE TEXT
  VALUE

                      00213         extern  _PLUSW2
                      00214         extern  _PREINC2
                      00215         extern  _POSTDEC2
                      00216         extern  _POSTINC2
                      00217         extern  _INDF2
                      00218         extern  _BSR
                      00219         extern  _FSR1L
                      00220         extern  _FSR1H
                      00221         extern  _PLUSW1
                      00222         extern  _PREINC1
                      00223         extern  _POSTDEC1
                      00224         extern  _POSTINC1
                      00225         extern  _INDF1
                      00226         extern  _WREG
                      00227         extern  _FSR0L
                      00228         extern  _FSR0H
                      00229         extern  _PLUSW0
                      00230         extern  _PREINC0
                      00231         extern  _POSTDEC0
                      00232         extern  _POSTINC0
                      00233         extern  _INDF0
                      00234         extern  _INTCON3
                      00235         extern  _INTCON2
                      00236         extern  _INTCON
                      00237         extern  _PROD
                      00238         extern  _PRODL
                      00239         extern  _PRODH
                      00240         extern  _TABLAT
                      00241         extern  _TBLPTR
                      00242         extern  _TBLPTRL
                      00243         extern  _TBLPTRH
                      00244         extern  _TBLPTRU
                      00245         extern  _PC
                      00246         extern  _PCL
                      00247         extern  _PCLATH
                      00248         extern  _PCLATU
                      00249         extern  _STKPTR
                      00250         extern  _TOS
                      00251         extern  _TOSL
                      00252         extern  _TOSH
                      00253         extern  _TOSU
                      00254 
                      00255 ;--------------------------------------------------------
                      00256 ;       Equates to used internal registers
                      00257 ;--------------------------------------------------------
  00000FE1            00258 FSR1L   equ     0xfe1
  00000FD9            00259 FSR2L   equ     0xfd9
  00000FE5            00260 POSTDEC1        equ     0xfe5
  00000FE4            00261 PREINC1 equ     0xfe4
  00000FDB            00262 PLUSW2  equ     0xfdb
                      00263 
                      00264 
                      00265 ; Internal registers
gpasm-0.14.1 (Aug 18 2017)   libio18f13k50_a-uopen.asm8-18-2017  19:26:50          PAGE  6


LOC  OBJECT CODE     LINE SOURCE TEXT
  VALUE

                      00266 .registers      udata_ovr       0x0000
000000                00267 r0x00   res     1
000001                00268 r0x01   res     1
000002                00269 r0x02   res     1
                      00270 
                      00271 ;--------------------------------------------------------
                      00272 ; global & static initialisations
                      00273 ;--------------------------------------------------------
                      00274 ; I code from now on!
                      00275 ; ; Starting pCode block
                      00276 ; ;ic:1:  _entry($20) :
                      00277 ; ;ic:2:        proc _usart_open [k1 lr0:0 so:0]{ ia0 a2p0 re0 rm0 nos0 ru0 dp0}{void function ( unsigned-char fixed, unsigned-int fixed) fixed}
                      00278 S_uopen__usart_open     code
000000                00279 _usart_open:
                      00280 ;       .line   42; usart/uopen.c       usart_open (unsigned char config, sdcc_spbrg_t spbrg) __wparam
000000 CFD9 FFE5      00281         MOVFF   FSR2L, POSTDEC1
000004 CFE1 FFD9      00282         MOVFF   FSR1L, FSR2L
000008 C000 FFE5      00283         MOVFF   r0x00, POSTDEC1
00000C C000 FFE5      00284         MOVFF   r0x01, POSTDEC1
000010 C000 FFE5      00285         MOVFF   r0x02, POSTDEC1
                      00286 ; ;ic:3: iTemp0 [k2 lr3:70 so:0]{ ia0 a2p0 re1 rm0 nos0 ru0 dp0}{unsigned-char fixed}{ sir@ _usart_open_config_1_10}[r0x00 ] = recv _usart_open [k1 lr0:0 so:0]{ ia0 a2p0 re0 rm0 nos0 ru0 dp0}{void function ( unsigned-char fixed, unsigned-int fixed) fixed}
000014 6E00           00287         MOVWF   r0x00
                      00288 ; ;ic:4: iTemp1 [k4 lr4:83 so:0]{ ia0 a2p0 re1 rm0 nos0 ru0 dp0}{unsigned-int fixed}{ sir@ _usart_open_spbrg_1_10}[r0x01 r0x02 ] = recv _usart_open [k1 lr0:0 so:0]{ ia0 a2p0 re0 rm0 nos0 ru0 dp0}{void function ( unsigned-char fixed, unsigned-int fixed) fixed}
000016 0E02           00289         MOVLW   0x02
000018 CFDB F000      00290         MOVFF   PLUSW2, r0x01
00001C 0E03           00291         MOVLW   0x03
00001E CFDB F000      00292         MOVFF   PLUSW2, r0x02
                      00293 ; ;ic:5:        _TXSTA [k6 lr0:0 so:0]{ ia1 a2p0 re0 rm0 nos0 ru0 dp0}{volatile-unsigned-char sfr} := 0x0 {const-unsigned-char literal}
                      00294 ;       .line   44; usart/uopen.c       TXSTA = 0;           // Reset USART registers to POR state
000022 6A00           00295         CLRF    _TXSTA
                      00296 ; ;ic:6:        _RCSTA [k7 lr0:0 so:0]{ ia1 a2p0 re0 rm0 nos0 ru0 dp0}{volatile-unsigned-char sfr} := 0x0 {const-unsigned-char literal}
                      00297 ; #     CLRF    _RCSTA
                      00298 ; #;;ic:7:      iTemp2 [k8 lr7:8 so:0]{ ia0 a2p0 re0 rm0 nos0 ru0 dp0}{unsigned-char register} = iTemp0 [k2 lr3:70 so:0]{ ia0 a2p0 re1 rm0 nos0 ru0 dp0}{unsigned-char fixed}{ sir@ _usart_open_config_1_10}[r0x00 ] & 0x1 {const-unsigned-char literal}
                      00299 ; #     BTFSS   r0x00, 0
                      00300 ; #     GOTO    _00106_DS_
                      00301 ; #;;ic:8:      if iTemp2 [k8 lr7:8 so:0]{ ia0 a2p0 re0 rm0 nos0 ru0 dp0}{unsigned-char register} == 0 goto _iffalse_0($2)
                      00302 ; #;;ic:9:      iTemp3 [k10 lr9:10 so:0]{ ia0 a2p0 re0 rm1 nos0 ru0 dp0}{volatile-unsigned-bitfield {4,1} near* fixed}[remat] = &[_TXSTAbits [k9 lr0:0 so:0]{ ia0 a2p0 re0 rm0 nos0 ru0 dp0}{volatile-struct __00000291 fixed}]
                      00303 ; #;;ic:10:     iTemp4 [k12 lr10:11 so:0]{ ia0 a2p0 re0 rm1 nos0 ru0 dp0}{volatile-unsigned-bitfield {4,1} near* fixed}[remat] := iTemp3 [k10 lr9:10 so:0]{ ia0 a2p0 re0 rm1 nos0 ru0 dp0}{volatile-unsigned-bitfield {4,1} near* fixed}[remat]
                      00304 ; #;;ic:11:     *(iTemp4 [k12 lr10:11 so:0]{ ia1 a2p0 re0 rm1 nos0 ru0 dp0}{volatile-unsigned-bitfield {4,1} near* fixed}[remat]) := 0x1 {const-unsigned-char literal}
                      00305 ; #     BSF     _TXSTAbits, 4
                      00306 ; #;;ic:12:  _iffalse_0($2) :
                      00307 ; #;;ic:13:     iTemp5 [k13 lr13:14 so:0]{ ia0 a2p0 re0 rm0 nos0 ru0 dp0}{unsigned-char register} = iTemp0 [k2 lr3:70 so:0]{ ia0 a2p0 re1 rm0 nos0 ru0 dp0}{unsigned-char fixed}{ sir@ _usart_open_config_1_10}[r0x00 ] & 0x2 {const-unsigned-char literal}
                      00308 ; #     BTFSS   r0x00, 1
                      00309 ;       .line   45; usart/uopen.c       RCSTA = 0;
000024 6A00           00310         CLRF    _RCSTA
                      00311 ;       .line   47; usart/uopen.c       if (config & 0x01)
000026 B000           00312         BTFSC   r0x00, 0
                      00313 ;       .line   48; usart/uopen.c       TXSTAbits.SYNC = 1;
000028 8800           00314         BSF     _TXSTAbits, 4
                      00315 ;       .line   50; usart/uopen.c       if (config & 0x02)
00002A A200           00316         BTFSS   r0x00, 1
00002C D000           00317         BRA     _00108_DS_
                      00318 ; ;ic:14:       if iTemp5 [k13 lr13:14 so:0]{ ia0 a2p0 re0 rm0 nos0 ru0 dp0}{unsigned-char register} == 0 goto _iffalse_1($4)
gpasm-0.14.1 (Aug 18 2017)   libio18f13k50_a-uopen.asm8-18-2017  19:26:50          PAGE  7


LOC  OBJECT CODE     LINE SOURCE TEXT
  VALUE

                      00319 ; ;ic:15:       iTemp6 [k14 lr15:16 so:0]{ ia0 a2p0 re0 rm1 nos0 ru0 dp0}{volatile-unsigned-bitfield {6,1} near* fixed}[remat] = &[_TXSTAbits [k9 lr0:0 so:0]{ ia0 a2p0 re0 rm0 nos0 ru0 dp0}{volatile-struct __00000291 fixed}]
                      00320 ; ;ic:16:       iTemp7 [k16 lr16:17 so:0]{ ia0 a2p0 re0 rm1 nos0 ru0 dp0}{volatile-unsigned-bitfield {6,1} near* fixed}[remat] := iTemp6 [k14 lr15:16 so:0]{ ia0 a2p0 re0 rm1 nos0 ru0 dp0}{volatile-unsigned-bitfield {6,1} near* fixed}[remat]
                      00321 ; ;ic:17:       *(iTemp7 [k16 lr16:17 so:0]{ ia1 a2p0 re0 rm1 nos0 ru0 dp0}{volatile-unsigned-bitfield {6,1} near* fixed}[remat]) := 0x1 {const-unsigned-char literal}
                      00322 ;       .line   52; usart/uopen.c       TXSTAbits.TX9 = 1;
00002E 8C00           00323         BSF     _TXSTAbits, 6
                      00324 ; ;ic:18:       iTemp8 [k18 lr18:19 so:0]{ ia0 a2p0 re0 rm1 nos0 ru0 dp0}{volatile-unsigned-bitfield {6,1} near* fixed}[remat] = &[_RCSTAbits [k17 lr0:0 so:0]{ ia0 a2p0 re0 rm0 nos0 ru0 dp0}{volatile-struct __00000281 fixed}]
                      00325 ; ;ic:19:       iTemp9 [k20 lr19:20 so:0]{ ia0 a2p0 re0 rm1 nos0 ru0 dp0}{volatile-unsigned-bitfield {6,1} near* fixed}[remat] := iTemp8 [k18 lr18:19 so:0]{ ia0 a2p0 re0 rm1 nos0 ru0 dp0}{volatile-unsigned-bitfield {6,1} near* fixed}[remat]
                      00326 ; ;ic:20:       *(iTemp9 [k20 lr19:20 so:0]{ ia1 a2p0 re0 rm1 nos0 ru0 dp0}{volatile-unsigned-bitfield {6,1} near* fixed}[remat]) := 0x1 {const-unsigned-char literal}
                      00327 ;       .line   53; usart/uopen.c       RCSTAbits.RX9 = 1;
000030 8C00           00328         BSF     _RCSTAbits, 6
                      00329 ; ;ic:21:  _iffalse_1($4) :
                      00330 ; ;ic:22:       iTemp10 [k21 lr22:23 so:0]{ ia0 a2p0 re0 rm0 nos0 ru0 dp0}{unsigned-char register} = iTemp0 [k2 lr3:70 so:0]{ ia0 a2p0 re1 rm0 nos0 ru0 dp0}{unsigned-char fixed}{ sir@ _usart_open_config_1_10}[r0x00 ] & 0x4 {const-unsigned-char literal}
000032                00331 _00108_DS_:
                      00332 ;       .line   56; usart/uopen.c       if (config & 0x04)
000032 A400           00333         BTFSS   r0x00, 2
000034 D000           00334         BRA     _00110_DS_
                      00335 ; ;ic:23:       if iTemp10 [k21 lr22:23 so:0]{ ia0 a2p0 re0 rm0 nos0 ru0 dp0}{unsigned-char register} == 0 goto _iffalse_2($6)
                      00336 ; ;ic:24:       iTemp11 [k22 lr24:25 so:0]{ ia0 a2p0 re0 rm1 nos0 ru0 dp0}{volatile-unsigned-bitfield {7,1} near* fixed}[remat] = &[_TXSTAbits [k9 lr0:0 so:0]{ ia0 a2p0 re0 rm0 nos0 ru0 dp0}{volatile-struct __00000291 fixed}]
                      00337 ; ;ic:25:       iTemp12 [k24 lr25:26 so:0]{ ia0 a2p0 re0 rm1 nos0 ru0 dp0}{volatile-unsigned-bitfield {7,1} near* fixed}[remat] := iTemp11 [k22 lr24:25 so:0]{ ia0 a2p0 re0 rm1 nos0 ru0 dp0}{volatile-unsigned-bitfield {7,1} near* fixed}[remat]
                      00338 ; ;ic:26:       *(iTemp12 [k24 lr25:26 so:0]{ ia1 a2p0 re0 rm1 nos0 ru0 dp0}{volatile-unsigned-bitfield {7,1} near* fixed}[remat]) := 0x1 {const-unsigned-char literal}
                      00339 ;       .line   57; usart/uopen.c       TXSTAbits.CSRC = 1;
000036 8E00           00340         BSF     _TXSTAbits, 7
                      00341 ; ;ic:27:  _iffalse_2($6) :
                      00342 ; ;ic:28:       iTemp13 [k25 lr28:29 so:0]{ ia0 a2p0 re0 rm0 nos0 ru0 dp0}{unsigned-char register} = iTemp0 [k2 lr3:70 so:0]{ ia0 a2p0 re1 rm0 nos0 ru0 dp0}{unsigned-char fixed}{ sir@ _usart_open_config_1_10}[r0x00 ] & 0x8 {const-unsigned-char literal}
000038                00343 _00110_DS_:
                      00344 ;       .line   59; usart/uopen.c       if (config & 0x08)
000038 A600           00345         BTFSS   r0x00, 3
00003A D000           00346         BRA     _00112_DS_
                      00347 ; ;ic:29:       if iTemp13 [k25 lr28:29 so:0]{ ia0 a2p0 re0 rm0 nos0 ru0 dp0}{unsigned-char register} == 0 goto _iffalse_3($8)
                      00348 ; ;ic:30:       iTemp14 [k26 lr30:31 so:0]{ ia0 a2p0 re0 rm1 nos0 ru0 dp0}{volatile-unsigned-bitfield {4,1} near* fixed}[remat] = &[_RCSTAbits [k17 lr0:0 so:0]{ ia0 a2p0 re0 rm0 nos0 ru0 dp0}{volatile-struct __00000281 fixed}]
                      00349 ; ;ic:31:       iTemp15 [k28 lr31:32 so:0]{ ia0 a2p0 re0 rm1 nos0 ru0 dp0}{volatile-unsigned-bitfield {4,1} near* fixed}[remat] := iTemp14 [k26 lr30:31 so:0]{ ia0 a2p0 re0 rm1 nos0 ru0 dp0}{volatile-unsigned-bitfield {4,1} near* fixed}[remat]
                      00350 ; ;ic:32:       *(iTemp15 [k28 lr31:32 so:0]{ ia1 a2p0 re0 rm1 nos0 ru0 dp0}{volatile-unsigned-bitfield {4,1} near* fixed}[remat]) := 0x1 {const-unsigned-char literal}
                      00351 ;       .line   60; usart/uopen.c       RCSTAbits.CREN = 1;
00003C 8800           00352         BSF     _RCSTAbits, 4
                      00353 ; ;ic:33:        goto _ifend_3($9)
00003E D000           00354         BRA     _00113_DS_
                      00355 ; ;ic:34:  _iffalse_3($8) :
                      00356 ; ;ic:35:       iTemp16 [k29 lr35:36 so:0]{ ia0 a2p0 re0 rm1 nos0 ru0 dp0}{volatile-unsigned-bitfield {5,1} near* fixed}[remat] = &[_RCSTAbits [k17 lr0:0 so:0]{ ia0 a2p0 re0 rm0 nos0 ru0 dp0}{volatile-struct __00000281 fixed}]
                      00357 ; ;ic:36:       iTemp17 [k31 lr36:37 so:0]{ ia0 a2p0 re0 rm1 nos0 ru0 dp0}{volatile-unsigned-bitfield {5,1} near* fixed}[remat] := iTemp16 [k29 lr35:36 so:0]{ ia0 a2p0 re0 rm1 nos0 ru0 dp0}{volatile-unsigned-bitfield {5,1} near* fixed}[remat]
                      00358 ; ;ic:37:       *(iTemp17 [k31 lr36:37 so:0]{ ia1 a2p0 re0 rm1 nos0 ru0 dp0}{volatile-unsigned-bitfield {5,1} near* fixed}[remat]) := 0x1 {const-unsigned-char literal}
000040                00359 _00112_DS_:
                      00360 ;       .line   62; usart/uopen.c       RCSTAbits.SREN = 1;
000040 8A00           00361         BSF     _RCSTAbits, 5
                      00362 ; ;ic:38:  _ifend_3($9) :
                      00363 ; ;ic:39:       iTemp18 [k32 lr39:40 so:0]{ ia0 a2p0 re0 rm0 nos0 ru0 dp0}{unsigned-char register} = iTemp0 [k2 lr3:70 so:0]{ ia0 a2p0 re1 rm0 nos0 ru0 dp0}{unsigned-char fixed}{ sir@ _usart_open_config_1_10}[r0x00 ] & 0x10 {const-unsigned-char literal}
000042                00364 _00113_DS_:
                      00365 ;       .line   64; usart/uopen.c       if (config & 0x10)
000042 A800           00366         BTFSS   r0x00, 4
000044 D000           00367         BRA     _00115_DS_
                      00368 ; ;ic:40:       if iTemp18 [k32 lr39:40 so:0]{ ia0 a2p0 re0 rm0 nos0 ru0 dp0}{unsigned-char register} == 0 goto _iffalse_4($11)
                      00369 ; ;ic:41:       iTemp19 [k33 lr41:42 so:0]{ ia0 a2p0 re0 rm1 nos0 ru0 dp0}{volatile-unsigned-bitfield {2,1} near* fixed}[remat] = &[_TXSTAbits [k9 lr0:0 so:0]{ ia0 a2p0 re0 rm0 nos0 ru0 dp0}{volatile-struct __00000291 fixed}]
                      00370 ; ;ic:42:       iTemp20 [k35 lr42:43 so:0]{ ia0 a2p0 re0 rm1 nos0 ru0 dp0}{volatile-unsigned-bitfield {2,1} near* fixed}[remat] := iTemp19 [k33 lr41:42 so:0]{ ia0 a2p0 re0 rm1 nos0 ru0 dp0}{volatile-unsigned-bitfield {2,1} near* fixed}[remat]
                      00371 ; ;ic:43:       *(iTemp20 [k35 lr42:43 so:0]{ ia1 a2p0 re0 rm1 nos0 ru0 dp0}{volatile-unsigned-bitfield {2,1} near* fixed}[remat]) := 0x1 {const-unsigned-char literal}
gpasm-0.14.1 (Aug 18 2017)   libio18f13k50_a-uopen.asm8-18-2017  19:26:50          PAGE  8


LOC  OBJECT CODE     LINE SOURCE TEXT
  VALUE

                      00372 ;       .line   66; usart/uopen.c       TXSTAbits.BRGH = 1;
000046 8400           00373         BSF     _TXSTAbits, 2
                      00374 ; ;ic:44:       iTemp21 [k37 lr44:45 so:0]{ ia0 a2p0 re0 rm1 nos0 ru0 dp0}{volatile-unsigned-bitfield {3,1} near* fixed}[remat] = &[_BAUDCONbits [k36 lr0:0 so:0]{ ia0 a2p0 re0 rm0 nos0 ru0 dp0}{volatile-struct __00000308 fixed}]
                      00375 ; ;ic:45:       iTemp22 [k39 lr45:46 so:0]{ ia0 a2p0 re0 rm1 nos0 ru0 dp0}{volatile-unsigned-bitfield {3,1} near* fixed}[remat] := iTemp21 [k37 lr44:45 so:0]{ ia0 a2p0 re0 rm1 nos0 ru0 dp0}{volatile-unsigned-bitfield {3,1} near* fixed}[remat]
                      00376 ; ;ic:46:       *(iTemp22 [k39 lr45:46 so:0]{ ia1 a2p0 re0 rm1 nos0 ru0 dp0}{volatile-unsigned-bitfield {3,1} near* fixed}[remat]) := 0x1 {const-unsigned-char literal}
                      00377 ;       .line   68; usart/uopen.c       BAUDCONbits.BRG16 = 1;
000048 8600           00378         BSF     _BAUDCONbits, 3
                      00379 ; ;ic:47:        goto _ifend_4($12)
00004A D000           00380         BRA     _00116_DS_
                      00381 ; ;ic:48:  _iffalse_4($11) :
                      00382 ; ;ic:49:       iTemp23 [k40 lr49:50 so:0]{ ia0 a2p0 re0 rm1 nos0 ru0 dp0}{volatile-unsigned-bitfield {3,1} near* fixed}[remat] = &[_BAUDCONbits [k36 lr0:0 so:0]{ ia0 a2p0 re0 rm0 nos0 ru0 dp0}{volatile-struct __00000308 fixed}]
                      00383 ; ;ic:50:       iTemp24 [k42 lr50:51 so:0]{ ia0 a2p0 re0 rm1 nos0 ru0 dp0}{volatile-unsigned-bitfield {3,1} near* fixed}[remat] := iTemp23 [k40 lr49:50 so:0]{ ia0 a2p0 re0 rm1 nos0 ru0 dp0}{volatile-unsigned-bitfield {3,1} near* fixed}[remat]
                      00384 ; ;ic:51:       *(iTemp24 [k42 lr50:51 so:0]{ ia1 a2p0 re0 rm1 nos0 ru0 dp0}{volatile-unsigned-bitfield {3,1} near* fixed}[remat]) := 0x0 {const-unsigned-char literal}
00004C                00385 _00115_DS_:
                      00386 ;       .line   72; usart/uopen.c       BAUDCONbits.BRG16 = 0;
00004C 9600           00387         BCF     _BAUDCONbits, 3
                      00388 ; ;ic:52:  _ifend_4($12) :
                      00389 ; ;ic:53:       iTemp25 [k44 lr53:54 so:0]{ ia0 a2p0 re0 rm1 nos0 ru0 dp0}{volatile-unsigned-bitfield {4,1} near* fixed}[remat] = &[_PIR1bits [k43 lr0:0 so:0]{ ia0 a2p0 re0 rm0 nos0 ru0 dp0}{volatile-struct __00000253 fixed}]
                      00390 ; ;ic:54:       iTemp26 [k46 lr54:55 so:0]{ ia0 a2p0 re0 rm1 nos0 ru0 dp0}{volatile-unsigned-bitfield {4,1} near* fixed}[remat] := iTemp25 [k44 lr53:54 so:0]{ ia0 a2p0 re0 rm1 nos0 ru0 dp0}{volatile-unsigned-bitfield {4,1} near* fixed}[remat]
                      00391 ; ;ic:55:       *(iTemp26 [k46 lr54:55 so:0]{ ia1 a2p0 re0 rm1 nos0 ru0 dp0}{volatile-unsigned-bitfield {4,1} near* fixed}[remat]) := 0x0 {const-unsigned-char literal}
00004E                00392 _00116_DS_:
                      00393 ;       .line   87; usart/uopen.c       PIR1bits.TXIF = 0;
00004E 9800           00394         BCF     _PIR1bits, 4
                      00395 ; ;ic:56:       iTemp27 [k47 lr56:57 so:0]{ ia0 a2p0 re0 rm0 nos0 ru0 dp0}{unsigned-char register} = iTemp0 [k2 lr3:70 so:0]{ ia0 a2p0 re1 rm0 nos0 ru0 dp0}{unsigned-char fixed}{ sir@ _usart_open_config_1_10}[r0x00 ] & 0x40 {const-unsigned-char literal}
                      00396 ;       .line   91; usart/uopen.c       if (config & 0x40)
000050 AC00           00397         BTFSS   r0x00, 6
000052 D000           00398         BRA     _00118_DS_
                      00399 ; ;ic:57:       if iTemp27 [k47 lr56:57 so:0]{ ia0 a2p0 re0 rm0 nos0 ru0 dp0}{unsigned-char register} == 0 goto _iffalse_5($14)
                      00400 ; ;ic:58:       iTemp28 [k49 lr58:59 so:0]{ ia0 a2p0 re0 rm1 nos0 ru0 dp0}{volatile-unsigned-bitfield {5,1} near* fixed}[remat] = &[_PIE1bits [k48 lr0:0 so:0]{ ia0 a2p0 re0 rm0 nos0 ru0 dp0}{volatile-struct __00000250 fixed}]
                      00401 ; ;ic:59:       iTemp29 [k51 lr59:60 so:0]{ ia0 a2p0 re0 rm1 nos0 ru0 dp0}{volatile-unsigned-bitfield {5,1} near* fixed}[remat] := iTemp28 [k49 lr58:59 so:0]{ ia0 a2p0 re0 rm1 nos0 ru0 dp0}{volatile-unsigned-bitfield {5,1} near* fixed}[remat]
                      00402 ; ;ic:60:       *(iTemp29 [k51 lr59:60 so:0]{ ia1 a2p0 re0 rm1 nos0 ru0 dp0}{volatile-unsigned-bitfield {5,1} near* fixed}[remat]) := 0x1 {const-unsigned-char literal}
                      00403 ;       .line   92; usart/uopen.c       PIE1bits.RCIE = 1;
000054 8A00           00404         BSF     _PIE1bits, 5
                      00405 ; ;ic:61:        goto _ifend_5($15)
000056 D000           00406         BRA     _00119_DS_
                      00407 ; ;ic:62:  _iffalse_5($14) :
                      00408 ; ;ic:63:       iTemp30 [k52 lr63:64 so:0]{ ia0 a2p0 re0 rm1 nos0 ru0 dp0}{volatile-unsigned-bitfield {5,1} near* fixed}[remat] = &[_PIE1bits [k48 lr0:0 so:0]{ ia0 a2p0 re0 rm0 nos0 ru0 dp0}{volatile-struct __00000250 fixed}]
                      00409 ; ;ic:64:       iTemp31 [k54 lr64:65 so:0]{ ia0 a2p0 re0 rm1 nos0 ru0 dp0}{volatile-unsigned-bitfield {5,1} near* fixed}[remat] := iTemp30 [k52 lr63:64 so:0]{ ia0 a2p0 re0 rm1 nos0 ru0 dp0}{volatile-unsigned-bitfield {5,1} near* fixed}[remat]
                      00410 ; ;ic:65:       *(iTemp31 [k54 lr64:65 so:0]{ ia1 a2p0 re0 rm1 nos0 ru0 dp0}{volatile-unsigned-bitfield {5,1} near* fixed}[remat]) := 0x0 {const-unsigned-char literal}
000058                00411 _00118_DS_:
                      00412 ;       .line   94; usart/uopen.c       PIE1bits.RCIE = 0;
000058 9A00           00413         BCF     _PIE1bits, 5
                      00414 ; ;ic:66:  _ifend_5($15) :
                      00415 ; ;ic:67:       iTemp32 [k55 lr67:68 so:0]{ ia0 a2p0 re0 rm1 nos0 ru0 dp0}{volatile-unsigned-bitfield {5,1} near* fixed}[remat] = &[_PIR1bits [k43 lr0:0 so:0]{ ia0 a2p0 re0 rm0 nos0 ru0 dp0}{volatile-struct __00000253 fixed}]
                      00416 ; ;ic:68:       iTemp33 [k57 lr68:69 so:0]{ ia0 a2p0 re0 rm1 nos0 ru0 dp0}{volatile-unsigned-bitfield {5,1} near* fixed}[remat] := iTemp32 [k55 lr67:68 so:0]{ ia0 a2p0 re0 rm1 nos0 ru0 dp0}{volatile-unsigned-bitfield {5,1} near* fixed}[remat]
                      00417 ; ;ic:69:       *(iTemp33 [k57 lr68:69 so:0]{ ia1 a2p0 re0 rm1 nos0 ru0 dp0}{volatile-unsigned-bitfield {5,1} near* fixed}[remat]) := 0x0 {const-unsigned-char literal}
00005A                00418 _00119_DS_:
                      00419 ;       .line   97; usart/uopen.c       PIR1bits.RCIF = 0;
00005A 9A00           00420         BCF     _PIR1bits, 5
                      00421 ; ;ic:70:       iTemp34 [k58 lr70:71 so:0]{ ia0 a2p0 re0 rm0 nos0 ru0 dp0}{unsigned-char register} = iTemp0 [k2 lr3:70 so:0]{ ia0 a2p0 re1 rm0 nos0 ru0 dp0}{unsigned-char fixed}{ sir@ _usart_open_config_1_10}[r0x00 ] & 0x80 {const-unsigned-char literal}
                      00422 ;       .line   112; usart/uopen.c      if (config & 0x80)
00005C AE00           00423         BTFSS   r0x00, 7
00005E D000           00424         BRA     _00121_DS_
gpasm-0.14.1 (Aug 18 2017)   libio18f13k50_a-uopen.asm8-18-2017  19:26:50          PAGE  9


LOC  OBJECT CODE     LINE SOURCE TEXT
  VALUE

                      00425 ; ;ic:71:       if iTemp34 [k58 lr70:71 so:0]{ ia0 a2p0 re0 rm0 nos0 ru0 dp0}{unsigned-char register} == 0 goto _iffalse_6($17)
                      00426 ; ;ic:72:       iTemp35 [k59 lr72:73 so:0]{ ia0 a2p0 re0 rm1 nos0 ru0 dp0}{volatile-unsigned-bitfield {4,1} near* fixed}[remat] = &[_PIE1bits [k48 lr0:0 so:0]{ ia0 a2p0 re0 rm0 nos0 ru0 dp0}{volatile-struct __00000250 fixed}]
                      00427 ; ;ic:73:       iTemp36 [k61 lr73:74 so:0]{ ia0 a2p0 re0 rm1 nos0 ru0 dp0}{volatile-unsigned-bitfield {4,1} near* fixed}[remat] := iTemp35 [k59 lr72:73 so:0]{ ia0 a2p0 re0 rm1 nos0 ru0 dp0}{volatile-unsigned-bitfield {4,1} near* fixed}[remat]
                      00428 ; ;ic:74:       *(iTemp36 [k61 lr73:74 so:0]{ ia1 a2p0 re0 rm1 nos0 ru0 dp0}{volatile-unsigned-bitfield {4,1} near* fixed}[remat]) := 0x1 {const-unsigned-char literal}
                      00429 ;       .line   113; usart/uopen.c      PIE1bits.TXIE = 1;
000060 8800           00430         BSF     _PIE1bits, 4
                      00431 ; ;ic:75:        goto _ifend_6($18)
000062 D000           00432         BRA     _00122_DS_
                      00433 ; ;ic:76:  _iffalse_6($17) :
                      00434 ; ;ic:77:       iTemp37 [k62 lr77:78 so:0]{ ia0 a2p0 re0 rm1 nos0 ru0 dp0}{volatile-unsigned-bitfield {4,1} near* fixed}[remat] = &[_PIE1bits [k48 lr0:0 so:0]{ ia0 a2p0 re0 rm0 nos0 ru0 dp0}{volatile-struct __00000250 fixed}]
                      00435 ; ;ic:78:       iTemp38 [k64 lr78:79 so:0]{ ia0 a2p0 re0 rm1 nos0 ru0 dp0}{volatile-unsigned-bitfield {4,1} near* fixed}[remat] := iTemp37 [k62 lr77:78 so:0]{ ia0 a2p0 re0 rm1 nos0 ru0 dp0}{volatile-unsigned-bitfield {4,1} near* fixed}[remat]
                      00436 ; ;ic:79:       *(iTemp38 [k64 lr78:79 so:0]{ ia1 a2p0 re0 rm1 nos0 ru0 dp0}{volatile-unsigned-bitfield {4,1} near* fixed}[remat]) := 0x0 {const-unsigned-char literal}
000064                00437 _00121_DS_:
                      00438 ;       .line   115; usart/uopen.c      PIE1bits.TXIE = 0;
000064 9800           00439         BCF     _PIE1bits, 4
                      00440 ; ;ic:80:  _ifend_6($18) :
                      00441 ; ;ic:81:       iTemp39 [k66 lr81:82 so:0]{ ia0 a2p0 re0 rm0 nos0 ru0 dp0}{unsigned-int fixed}[r0x00 r0x03 ] = iTemp1 [k4 lr4:83 so:0]{ ia0 a2p0 re1 rm0 nos0 ru0 dp0}{unsigned-int fixed}{ sir@ _usart_open_spbrg_1_10}[r0x01 r0x02 ] >> 0x8 {const-unsigned-char literal}
000066                00442 _00122_DS_:
                      00443 ;       .line   120; usart/uopen.c      SPBRGH = (spbrg >> 8);
000066 5000           00444         MOVF    r0x02, W
                      00445 ; ;ic:82:       _SPBRGH [k65 lr0:0 so:0]{ ia1 a2p0 re0 rm0 nos0 ru0 dp0}{volatile-unsigned-char sfr} = (volatile-unsigned-char sfr)iTemp39 [k66 lr81:82 so:0]{ ia0 a2p0 re0 rm0 nos0 ru0 dp0}{unsigned-int fixed}[r0x00 r0x03 ]
000068 6E00           00446         MOVWF   _SPBRGH
                      00447 ; ;ic:83:       _SPBRG [k68 lr0:0 so:0]{ ia1 a2p0 re0 rm0 nos0 ru0 dp0}{volatile-unsigned-char sfr} = (volatile-unsigned-char sfr)iTemp1 [k4 lr4:83 so:0]{ ia0 a2p0 re1 rm0 nos0 ru0 dp0}{unsigned-int fixed}{ sir@ _usart_open_spbrg_1_10}[r0x01 r0x02 ]
                      00448 ;       .line   122; usart/uopen.c      SPBRG = spbrg;
00006A 5000           00449         MOVF    r0x01, W
00006C 6E00           00450         MOVWF   _SPBRG
                      00451 ; ;ic:84:       iTemp42 [k71 lr84:85 so:0]{ ia0 a2p0 re0 rm1 nos0 ru0 dp0}{volatile-unsigned-bitfield {3,1} near* fixed}[remat] = &[_ANSELHbits [k70 lr0:0 so:0]{ ia0 a2p0 re0 rm0 nos0 ru0 dp0}{volatile-struct __00000128 fixed}]
                      00452 ; ;ic:85:       iTemp43 [k73 lr85:86 so:0]{ ia0 a2p0 re0 rm1 nos0 ru0 dp0}{volatile-unsigned-bitfield {3,1} near* fixed}[remat] := iTemp42 [k71 lr84:85 so:0]{ ia0 a2p0 re0 rm1 nos0 ru0 dp0}{volatile-unsigned-bitfield {3,1} near* fixed}[remat]
                      00453 ; ;ic:86:       *(iTemp43 [k73 lr85:86 so:0]{ ia1 a2p0 re0 rm1 nos0 ru0 dp0}{volatile-unsigned-bitfield {3,1} near* fixed}[remat]) := 0x0 {const-unsigned-char literal}
                      00454 ;       .line   138; usart/uopen.c      ANSELHbits.ANS11 = 0;
00006E 9600           00455         BCF     _ANSELHbits, 3
                      00456 ; ;ic:87:       iTemp44 [k75 lr87:88 so:0]{ ia0 a2p0 re0 rm1 nos0 ru0 dp0}{volatile-unsigned-bitfield {5,1} near* fixed}[remat] = &[_TRISBbits [k74 lr0:0 so:0]{ ia0 a2p0 re0 rm0 nos0 ru0 dp0}{volatile-struct __00000238 fixed}]
                      00457 ; ;ic:88:       iTemp45 [k77 lr88:89 so:0]{ ia0 a2p0 re0 rm1 nos0 ru0 dp0}{volatile-unsigned-bitfield {5,1} near* fixed}[remat] := iTemp44 [k75 lr87:88 so:0]{ ia0 a2p0 re0 rm1 nos0 ru0 dp0}{volatile-unsigned-bitfield {5,1} near* fixed}[remat]
                      00458 ; ;ic:89:       *(iTemp45 [k77 lr88:89 so:0]{ ia1 a2p0 re0 rm1 nos0 ru0 dp0}{volatile-unsigned-bitfield {5,1} near* fixed}[remat]) := 0x1 {const-unsigned-char literal}
                      00459 ;       .line   141; usart/uopen.c      TRISBbits.TRISB5 = 1;
000070 8A00           00460         BSF     _TRISBbits, 5
                      00461 ; ;ic:90:       iTemp46 [k78 lr90:91 so:0]{ ia0 a2p0 re0 rm1 nos0 ru0 dp0}{volatile-unsigned-bitfield {7,1} near* fixed}[remat] = &[_TRISBbits [k74 lr0:0 so:0]{ ia0 a2p0 re0 rm0 nos0 ru0 dp0}{volatile-struct __00000238 fixed}]
                      00462 ; ;ic:91:       iTemp47 [k80 lr91:92 so:0]{ ia0 a2p0 re0 rm1 nos0 ru0 dp0}{volatile-unsigned-bitfield {7,1} near* fixed}[remat] := iTemp46 [k78 lr90:91 so:0]{ ia0 a2p0 re0 rm1 nos0 ru0 dp0}{volatile-unsigned-bitfield {7,1} near* fixed}[remat]
                      00463 ; ;ic:92:       *(iTemp47 [k80 lr91:92 so:0]{ ia1 a2p0 re0 rm1 nos0 ru0 dp0}{volatile-unsigned-bitfield {7,1} near* fixed}[remat]) := 0x1 {const-unsigned-char literal}
                      00464 ;       .line   142; usart/uopen.c      TRISBbits.TRISB7 = 1;
000072 8E00           00465         BSF     _TRISBbits, 7
                      00466 ; ;ic:93:       iTemp48 [k81 lr93:94 so:0]{ ia0 a2p0 re0 rm1 nos0 ru0 dp0}{volatile-unsigned-bitfield {5,1} near* fixed}[remat] = &[_TXSTAbits [k9 lr0:0 so:0]{ ia0 a2p0 re0 rm0 nos0 ru0 dp0}{volatile-struct __00000291 fixed}]
                      00467 ; ;ic:94:       iTemp49 [k83 lr94:95 so:0]{ ia0 a2p0 re0 rm1 nos0 ru0 dp0}{volatile-unsigned-bitfield {5,1} near* fixed}[remat] := iTemp48 [k81 lr93:94 so:0]{ ia0 a2p0 re0 rm1 nos0 ru0 dp0}{volatile-unsigned-bitfield {5,1} near* fixed}[remat]
                      00468 ; ;ic:95:       *(iTemp49 [k83 lr94:95 so:0]{ ia1 a2p0 re0 rm1 nos0 ru0 dp0}{volatile-unsigned-bitfield {5,1} near* fixed}[remat]) := 0x1 {const-unsigned-char literal}
                      00469 ;       .line   164; usart/uopen.c      TXSTAbits.TXEN = 1;
000074 8A00           00470         BSF     _TXSTAbits, 5
                      00471 ; ;ic:96:       iTemp50 [k84 lr96:97 so:0]{ ia0 a2p0 re0 rm1 nos0 ru0 dp0}{volatile-unsigned-bitfield {7,1} near* fixed}[remat] = &[_RCSTAbits [k17 lr0:0 so:0]{ ia0 a2p0 re0 rm0 nos0 ru0 dp0}{volatile-struct __00000281 fixed}]
                      00472 ; ;ic:97:       iTemp51 [k86 lr97:98 so:0]{ ia0 a2p0 re0 rm1 nos0 ru0 dp0}{volatile-unsigned-bitfield {7,1} near* fixed}[remat] := iTemp50 [k84 lr96:97 so:0]{ ia0 a2p0 re0 rm1 nos0 ru0 dp0}{volatile-unsigned-bitfield {7,1} near* fixed}[remat]
                      00473 ; ;ic:98:       *(iTemp51 [k86 lr97:98 so:0]{ ia1 a2p0 re0 rm1 nos0 ru0 dp0}{volatile-unsigned-bitfield {7,1} near* fixed}[remat]) := 0x1 {const-unsigned-char literal}
                      00474 ;       .line   165; usart/uopen.c      RCSTAbits.SPEN = 1;
000076 8E00           00475         BSF     _RCSTAbits, 7
                      00476 ; ;ic:99:  _return($19) :
                      00477 ; ;ic:100:      eproc _usart_open [k1 lr0:0 so:0]{ ia0 a2p0 re0 rm0 nos0 ru0 dp0}{void function ( unsigned-char fixed, unsigned-int fixed) fixed}
gpasm-0.14.1 (Aug 18 2017)   libio18f13k50_a-uopen.asm8-18-2017  19:26:50          PAGE 10


LOC  OBJECT CODE     LINE SOURCE TEXT
  VALUE

000078 CFE4 F000      00478         MOVFF   PREINC1, r0x02
00007C CFE4 F000      00479         MOVFF   PREINC1, r0x01
000080 CFE4 F000      00480         MOVFF   PREINC1, r0x00
000084 CFE4 FFD9      00481         MOVFF   PREINC1, FSR2L
000088 0012           00482         RETURN  
                      00483 
                      00484 
                      00485 
                      00486 ; Statistics:
                      00487 ; code size:      138 (0x008a) bytes ( 0.11%)
                      00488 ;                  69 (0x0045) words
                      00489 ; udata size:       0 (0x0000) bytes ( 0.00%)
                      00490 ; access size:      3 (0x0003) bytes
                      00491 
                      00492 
                      00493         end
gpasm-0.14.1 (Aug 18 2017)   libio18f13k50_a-uopen.asm8-18-2017  19:26:50          PAGE 11


SYMBOL TABLE
  LABEL                             VALUE

FSR1L                             00000FE1
FSR2L                             00000FD9
PLUSW2                            00000FDB
POSTDEC1                          00000FE5
PREINC1                           00000FE4
_00108_DS_                        00000032
_00110_DS_                        00000038
_00112_DS_                        00000040
_00113_DS_                        00000042
_00115_DS_                        0000004C
_00116_DS_                        0000004E
_00118_DS_                        00000058
_00119_DS_                        0000005A
_00121_DS_                        00000064
_00122_DS_                        00000066
_ADCON0                           00000000
_ADCON0bits                       00000000
_ADCON1                           00000000
_ADCON1bits                       00000000
_ADCON2                           00000000
_ADCON2bits                       00000000
_ADRES                            00000000
_ADRESH                           00000000
_ADRESL                           00000000
_ANSEL                            00000000
_ANSELH                           00000000
_ANSELHbits                       00000000
_ANSELbits                        00000000
_BAUDCON                          00000000
_BAUDCONbits                      00000000
_BAUDCTL                          00000000
_BAUDCTLbits                      00000000
_BSR                              00000000
_CCP1CON                          00000000
_CCP1CONbits                      00000000
_CCPR1                            00000000
_CCPR1H                           00000000
_CCPR1L                           00000000
_CM1CON0                          00000000
_CM1CON0bits                      00000000
_CM2CON0                          00000000
_CM2CON0bits                      00000000
_CM2CON1                          00000000
_CM2CON1bits                      00000000
_DDRA                             00000000
_DDRAbits                         00000000
_DDRB                             00000000
_DDRBbits                         00000000
_DDRC                             00000000
_DDRCbits                         00000000
_ECCP1AS                          00000000
_ECCP1ASbits                      00000000
_EEADR                            00000000
gpasm-0.14.1 (Aug 18 2017)   libio18f13k50_a-uopen.asm8-18-2017  19:26:50          PAGE 12


SYMBOL TABLE
  LABEL                             VALUE 

_EEADRH                           00000000
_EEADRHbits                       00000000
_EEADRbits                        00000000
_EECON1                           00000000
_EECON1bits                       00000000
_EECON2                           00000000
_EEDATA                           00000000
_FSR0H                            00000000
_FSR0L                            00000000
_FSR1H                            00000000
_FSR1L                            00000000
_FSR2H                            00000000
_FSR2L                            00000000
_INDF0                            00000000
_INDF1                            00000000
_INDF2                            00000000
_INTCON                           00000000
_INTCON2                          00000000
_INTCON2bits                      00000000
_INTCON3                          00000000
_INTCON3bits                      00000000
_INTCONbits                       00000000
_IOCA                             00000000
_IOCAbits                         00000000
_IOCB                             00000000
_IOCBbits                         00000000
_IPR1                             00000000
_IPR1bits                         00000000
_IPR2                             00000000
_IPR2bits                         00000000
_LATA                             00000000
_LATAbits                         00000000
_LATB                             00000000
_LATBbits                         00000000
_LATC                             00000000
_LATCbits                         00000000
_OSCCON                           00000000
_OSCCON2                          00000000
_OSCCON2bits                      00000000
_OSCCONbits                       00000000
_OSCTUNE                          00000000
_OSCTUNEbits                      00000000
_PC                               00000000
_PCL                              00000000
_PCLATH                           00000000
_PCLATU                           00000000
_PIE1                             00000000
_PIE1bits                         00000000
_PIE2                             00000000
_PIE2bits                         00000000
_PIR1                             00000000
_PIR1bits                         00000000
_PIR2                             00000000
gpasm-0.14.1 (Aug 18 2017)   libio18f13k50_a-uopen.asm8-18-2017  19:26:50          PAGE 13


SYMBOL TABLE
  LABEL                             VALUE 

_PIR2bits                         00000000
_PLUSW0                           00000000
_PLUSW1                           00000000
_PLUSW2                           00000000
_PORTA                            00000000
_PORTAbits                        00000000
_PORTB                            00000000
_PORTBbits                        00000000
_PORTC                            00000000
_PORTCbits                        00000000
_POSTDEC0                         00000000
_POSTDEC1                         00000000
_POSTDEC2                         00000000
_POSTINC0                         00000000
_POSTINC1                         00000000
_POSTINC2                         00000000
_PR2                              00000000
_PREINC0                          00000000
_PREINC1                          00000000
_PREINC2                          00000000
_PROD                             00000000
_PRODH                            00000000
_PRODL                            00000000
_PSTRCON                          00000000
_PSTRCONbits                      00000000
_PWM1CON                          00000000
_PWM1CONbits                      00000000
_RCON                             00000000
_RCONbits                         00000000
_RCREG                            00000000
_RCSTA                            00000000
_RCSTAbits                        00000000
_REFCON0                          00000000
_REFCON0bits                      00000000
_REFCON1                          00000000
_REFCON1bits                      00000000
_REFCON2                          00000000
_REFCON2bits                      00000000
_SLRCON                           00000000
_SLRCONbits                       00000000
_SPBRG                            00000000
_SPBRGH                           00000000
_SRCON0                           00000000
_SRCON0bits                       00000000
_SRCON1                           00000000
_SRCON1bits                       00000000
_SSPADD                           00000000
_SSPBUF                           00000000
_SSPCON1                          00000000
_SSPCON1bits                      00000000
_SSPCON2                          00000000
_SSPCON2bits                      00000000
_SSPMSK                           00000000
gpasm-0.14.1 (Aug 18 2017)   libio18f13k50_a-uopen.asm8-18-2017  19:26:50          PAGE 14


SYMBOL TABLE
  LABEL                             VALUE 

_SSPMSKbits                       00000000
_SSPSTAT                          00000000
_SSPSTATbits                      00000000
_STATUS                           00000000
_STATUSbits                       00000000
_STKPTR                           00000000
_STKPTRbits                       00000000
_T0CON                            00000000
_T0CONbits                        00000000
_T1CON                            00000000
_T1CONbits                        00000000
_T2CON                            00000000
_T2CONbits                        00000000
_T3CON                            00000000
_T3CONbits                        00000000
_TABLAT                           00000000
_TBLPTR                           00000000
_TBLPTRH                          00000000
_TBLPTRL                          00000000
_TBLPTRU                          00000000
_TMR0H                            00000000
_TMR0L                            00000000
_TMR1H                            00000000
_TMR1L                            00000000
_TMR2                             00000000
_TMR3H                            00000000
_TMR3L                            00000000
_TOS                              00000000
_TOSH                             00000000
_TOSL                             00000000
_TOSU                             00000000
_TRISA                            00000000
_TRISAbits                        00000000
_TRISB                            00000000
_TRISBbits                        00000000
_TRISC                            00000000
_TRISCbits                        00000000
_TXREG                            00000000
_TXSTA                            00000000
_TXSTAbits                        00000000
_UADDR                            00000000
_UADDRbits                        00000000
_UCFG                             00000000
_UCFGbits                         00000000
_UCON                             00000000
_UCONbits                         00000000
_UEIE                             00000000
_UEIEbits                         00000000
_UEIR                             00000000
_UEIRbits                         00000000
_UEP0                             00000000
_UEP0bits                         00000000
_UEP1                             00000000
gpasm-0.14.1 (Aug 18 2017)   libio18f13k50_a-uopen.asm8-18-2017  19:26:50          PAGE 15


SYMBOL TABLE
  LABEL                             VALUE 

_UEP1bits                         00000000
_UEP2                             00000000
_UEP2bits                         00000000
_UEP3                             00000000
_UEP3bits                         00000000
_UEP4                             00000000
_UEP4bits                         00000000
_UEP5                             00000000
_UEP5bits                         00000000
_UEP6                             00000000
_UEP6bits                         00000000
_UEP7                             00000000
_UEP7bits                         00000000
_UFRMH                            00000000
_UFRMHbits                        00000000
_UFRML                            00000000
_UFRMLbits                        00000000
_UIE                              00000000
_UIEbits                          00000000
_UIR                              00000000
_UIRbits                          00000000
_USART_Status                     00000000
_USTAT                            00000000
_USTATbits                        00000000
_VREFCON0                         00000000
_VREFCON0bits                     00000000
_VREFCON1                         00000000
_VREFCON1bits                     00000000
_VREFCON2                         00000000
_VREFCON2bits                     00000000
_WDTCON                           00000000
_WDTCONbits                       00000000
_WPUA                             00000000
_WPUAbits                         00000000
_WPUB                             00000000
_WPUBbits                         00000000
_WREG                             00000000
__18F13K50                        00000001
_usart_open                       00000000
r0x00                             00000000
r0x01                             00000001
r0x02                             00000002

Errors   :     0
Warnings :     0 reported,     0 suppressed
Messages :     0 reported,     0 suppressed

