gpasm-0.14.1 (Aug 18 2017)   libio18f1320_a-adcopen.asm8-18-2017  19:25:45          PAGE  1


LOC  OBJECT CODE     LINE SOURCE TEXT
  VALUE

                      00001 ;--------------------------------------------------------
                      00002 ; File Created by SDCC : free open source ANSI-C Compiler
                      00003 ; Version 3.2.0 #8004 (Aug 18 2017) (MINGW32)
                      00004 ; This file was generated Fri Aug 18 19:25:45 2017
                      00005 ;--------------------------------------------------------
                      00006 ; PIC16 port for the Microchip 16-bit core micros
                      00007 ;--------------------------------------------------------
                      00008         list    p=18f1320
                      00009 
                      00010         radix dec
                      00011 
                      00012 ;--------------------------------------------------------
                      00013 ; public variables in this module
                      00014 ;--------------------------------------------------------
                      00015         global  _adc_open
                      00016 
                      00017 ;--------------------------------------------------------
                      00018 ; extern variables in this module
                      00019 ;--------------------------------------------------------
                      00020         extern  _PORTAbits
                      00021         extern  _PORTBbits
                      00022         extern  _LATAbits
                      00023         extern  _LATBbits
                      00024         extern  _TRISAbits
                      00025         extern  _TRISBbits
                      00026         extern  _PIE1bits
                      00027         extern  _PIR1bits
                      00028         extern  _IPR1bits
                      00029         extern  _PIE2bits
                      00030         extern  _PIR2bits
                      00031         extern  _IPR2bits
                      00032         extern  _EECON1bits
                      00033         extern  _BAUDCTLbits
                      00034         extern  _RCSTAbits
                      00035         extern  _TXSTAbits
                      00036         extern  _T3CONbits
                      00037         extern  _ECCPASbits
                      00038         extern  _CCP1CONbits
                      00039         extern  _ADCON2bits
                      00040         extern  _ADCON1bits
                      00041         extern  _ADCON0bits
                      00042         extern  _T2CONbits
                      00043         extern  _T1CONbits
                      00044         extern  _RCONbits
                      00045         extern  _WDTCONbits
                      00046         extern  _LVDCONbits
                      00047         extern  _OSCCONbits
                      00048         extern  _T0CONbits
                      00049         extern  _STATUSbits
                      00050         extern  _INTCON3bits
                      00051         extern  _INTCON2bits
                      00052         extern  _INTCONbits
                      00053         extern  _STKPTRbits
gpasm-0.14.1 (Aug 18 2017)   libio18f1320_a-adcopen.asm8-18-2017  19:25:45          PAGE  2


LOC  OBJECT CODE     LINE SOURCE TEXT
  VALUE

                      00054         extern  _PORTA
                      00055         extern  _PORTB
                      00056         extern  _LATA
                      00057         extern  _LATB
                      00058         extern  _TRISA
                      00059         extern  _TRISB
                      00060         extern  _PIE1
                      00061         extern  _PIR1
                      00062         extern  _IPR1
                      00063         extern  _PIE2
                      00064         extern  _PIR2
                      00065         extern  _IPR2
                      00066         extern  _EECON1
                      00067         extern  _EECON2
                      00068         extern  _EEDATA
                      00069         extern  _EEADR
                      00070         extern  _BAUDCTL
                      00071         extern  _RCSTA
                      00072         extern  _TXSTA
                      00073         extern  _TXREG
                      00074         extern  _RCREG
                      00075         extern  _SPBRG
                      00076         extern  _SPBRGH
                      00077         extern  _T3CON
                      00078         extern  _TMR3L
                      00079         extern  _TMR3H
                      00080         extern  _ECCPAS
                      00081         extern  _CCP1CON
                      00082         extern  _CCPR1L
                      00083         extern  _CCPR1H
                      00084         extern  _ADCON2
                      00085         extern  _ADCON1
                      00086         extern  _ADCON0
                      00087         extern  _ADRESL
                      00088         extern  _ADRESH
                      00089         extern  _T2CON
                      00090         extern  _PR2
                      00091         extern  _TMR2
                      00092         extern  _T1CON
                      00093         extern  _TMR1L
                      00094         extern  _TMR1H
                      00095         extern  _RCON
                      00096         extern  _WDTCON
                      00097         extern  _LVDCON
                      00098         extern  _OSCCON
                      00099         extern  _T0CON
                      00100         extern  _TMR0L
                      00101         extern  _TMR0H
                      00102         extern  _STATUS
                      00103         extern  _FSR2L
                      00104         extern  _FSR2H
                      00105         extern  _PLUSW2
                      00106         extern  _PREINC2
gpasm-0.14.1 (Aug 18 2017)   libio18f1320_a-adcopen.asm8-18-2017  19:25:45          PAGE  3


LOC  OBJECT CODE     LINE SOURCE TEXT
  VALUE

                      00107         extern  _POSTDEC2
                      00108         extern  _POSTINC2
                      00109         extern  _INDF2
                      00110         extern  _BSR
                      00111         extern  _FSR1L
                      00112         extern  _FSR1H
                      00113         extern  _PLUSW1
                      00114         extern  _PREINC1
                      00115         extern  _POSTDEC1
                      00116         extern  _POSTINC1
                      00117         extern  _INDF1
                      00118         extern  _WREG
                      00119         extern  _FSR0L
                      00120         extern  _FSR0H
                      00121         extern  _PLUSW0
                      00122         extern  _PREINC0
                      00123         extern  _POSTDEC0
                      00124         extern  _POSTINC0
                      00125         extern  _INDF0
                      00126         extern  _INTCON3
                      00127         extern  _INTCON2
                      00128         extern  _INTCON
                      00129         extern  _PRODL
                      00130         extern  _PRODH
                      00131         extern  _TABLAT
                      00132         extern  _TBLPTRL
                      00133         extern  _TBLPTRH
                      00134         extern  _TBLPTRU
                      00135         extern  _PCL
                      00136         extern  _PCLATH
                      00137         extern  _PCLATU
                      00138         extern  _STKPTR
                      00139         extern  _TOSL
                      00140         extern  _TOSH
                      00141         extern  _TOSU
                      00142 
                      00143 ;--------------------------------------------------------
                      00144 ;       Equates to used internal registers
                      00145 ;--------------------------------------------------------
  00000FE8            00146 WREG    equ     0xfe8
  00000FE1            00147 FSR1L   equ     0xfe1
  00000FD9            00148 FSR2L   equ     0xfd9
  00000FE5            00149 POSTDEC1        equ     0xfe5
  00000FE4            00150 PREINC1 equ     0xfe4
  00000FDB            00151 PLUSW2  equ     0xfdb
                      00152 
                      00153 
                      00154 ; Internal registers
                      00155 .registers      udata_ovr       0x0000
000000                00156 r0x00   res     1
000001                00157 r0x01   res     1
000002                00158 r0x02   res     1
000003                00159 r0x03   res     1
gpasm-0.14.1 (Aug 18 2017)   libio18f1320_a-adcopen.asm8-18-2017  19:25:45          PAGE  4


LOC  OBJECT CODE     LINE SOURCE TEXT
  VALUE

                      00160 
                      00161 ;--------------------------------------------------------
                      00162 ; global & static initialisations
                      00163 ;--------------------------------------------------------
                      00164 ; I code from now on!
                      00165 ; ; Starting pCode block
                      00166 ; ;ic:1:  _entry($4) :
                      00167 ; ;ic:2:        proc _adc_open [k1 lr0:0 so:0]{ ia0 a2p0 re0 rm0 nos0 ru0 dp0}{void function ( unsigned-char fixed, unsigned-char fixed, unsigned-char fixed, unsigned-char fixed) fixed}
                      00168 S_adcopen__adc_open     code
000000                00169 _adc_open:
                      00170 ;       .line   42; adc/adcopen.c       adc_open(unsigned char channel, unsigned char fosc, sdcc_pcfg_t pcfg, unsigned char config)
000000 CFD9 FFE5      00171         MOVFF   FSR2L, POSTDEC1
000004 CFE1 FFD9      00172         MOVFF   FSR1L, FSR2L
000008 C000 FFE5      00173         MOVFF   r0x00, POSTDEC1
00000C C000 FFE5      00174         MOVFF   r0x01, POSTDEC1
000010 C000 FFE5      00175         MOVFF   r0x02, POSTDEC1
000014 C000 FFE5      00176         MOVFF   r0x03, POSTDEC1
                      00177 ; ;ic:3: iTemp0 [k2 lr3:8 so:0]{ ia0 a2p0 re1 rm0 nos0 ru0 dp0}{unsigned-char fixed}{ sir@ _adc_open_channel_1_7}[r0x00 ] = recv _adc_open [k1 lr0:0 so:0]{ ia0 a2p0 re0 rm0 nos0 ru0 dp0}{void function ( unsigned-char fixed, unsigned-char fixed, unsigned-char fixed, unsigned-char fixed) fixed}
000018 0E02           00178         MOVLW   0x02
00001A CFDB F000      00179         MOVFF   PLUSW2, r0x00
                      00180 ; ;ic:4: iTemp1 [k4 lr4:14 so:0]{ ia0 a2p0 re1 rm0 nos0 ru0 dp0}{unsigned-char fixed}{ sir@ _adc_open_fosc_1_7}[r0x01 ] = recv _adc_open [k1 lr0:0 so:0]{ ia0 a2p0 re0 rm0 nos0 ru0 dp0}{void function ( unsigned-char fixed, unsigned-char fixed, unsigned-char fixed, unsigned-char fixed) fixed}
00001E 0E03           00181         MOVLW   0x03
000020 CFDB F000      00182         MOVFF   PLUSW2, r0x01
                      00183 ; ;ic:5: iTemp2 [k6 lr5:12 so:0]{ ia0 a2p0 re1 rm0 nos0 ru0 dp0}{unsigned-char fixed}{ sir@ _adc_open_pcfg_1_7}[r0x02 ] = recv _adc_open [k1 lr0:0 so:0]{ ia0 a2p0 re0 rm0 nos0 ru0 dp0}{void function ( unsigned-char fixed, unsigned-char fixed, unsigned-char fixed, unsigned-char fixed) fixed}
000024 0E04           00184         MOVLW   0x04
000026 CFDB F000      00185         MOVFF   PLUSW2, r0x02
                      00186 ; ;ic:6: iTemp3 [k8 lr6:18 so:0]{ ia0 a2p0 re1 rm0 nos0 ru0 dp0}{unsigned-char fixed}{ sir@ _adc_open_config_1_7}[r0x03 ] = recv _adc_open [k1 lr0:0 so:0]{ ia0 a2p0 re0 rm0 nos0 ru0 dp0}{void function ( unsigned-char fixed, unsigned-char fixed, unsigned-char fixed, unsigned-char fixed) fixed}
00002A 0E05           00187         MOVLW   0x05
00002C CFDB F000      00188         MOVFF   PLUSW2, r0x03
                      00189 ; ;ic:7:        _ADCON0 [k10 lr0:0 so:0]{ ia1 a2p0 re0 rm0 nos0 ru0 dp0}{volatile-unsigned-char sfr} := 0x0 {const-unsigned-char literal}
                      00190 ;       .line   48; adc/adcopen.c       ADCON0 = 0;
000030 6A00           00191         CLRF    _ADCON0
                      00192 ; ;ic:8:        iTemp4 [k11 lr8:10 so:0]{ ia0 a2p0 re0 rm0 nos0 ru0 dp0}{unsigned-char register}[r0x00 ] = iTemp0 [k2 lr3:8 so:0]{ ia0 a2p0 re1 rm0 nos0 ru0 dp0}{unsigned-char fixed}{ sir@ _adc_open_channel_1_7}[r0x00 ] & 0x7 {const-unsigned-char literal}
                      00193 ;       .line   57; adc/adcopen.c       ADCON0 = ((channel & 0x07) | (config & ADC_VCFG_AN3_AN2)) << 2;
000032 0E07           00194         MOVLW   0x07
000034 1600           00195         ANDWF   r0x00, F
                      00196 ; ;ic:9:        iTemp5 [k12 lr9:10 so:0]{ ia0 a2p0 re0 rm0 nos0 ru0 dp0}{unsigned-char register}[r0x04 ] = iTemp3 [k8 lr6:18 so:0]{ ia0 a2p0 re1 rm0 nos0 ru0 dp0}{unsigned-char fixed}{ sir@ _adc_open_config_1_7}[r0x03 ] & 0x30 {const-unsigned-char literal}
000036 0E30           00197         MOVLW   0x30
000038 1400           00198         ANDWF   r0x03, W
                      00199 ; #     MOVWF   r0x04
                      00200 ; #;;ic:10:     iTemp6 [k13 lr10:11 so:0]{ ia0 a2p0 re0 rm0 nos0 ru0 dp0}{unsigned-char register}[r0x00 ] = iTemp4 [k11 lr8:10 so:0]{ ia0 a2p0 re0 rm0 nos0 ru0 dp0}{unsigned-char register}[r0x00 ] | iTemp5 [k12 lr9:10 so:0]{ ia0 a2p0 re0 rm0 nos0 ru0 dp0}{unsigned-char register}[r0x04 ]
                      00201 ; #     MOVF    r0x04, W
00003A 1200           00202         IORWF   r0x00, F
                      00203 ; ;ic:11:       _ADCON0 [k10 lr0:0 so:0]{ ia1 a2p0 re0 rm0 nos0 ru0 dp0}{volatile-unsigned-char sfr} = iTemp6 [k13 lr10:11 so:0]{ ia0 a2p0 re0 rm0 nos0 ru0 dp0}{unsigned-char register}[r0x00 ] << 0x2 {const-unsigned-char literal}
00003C 4400           00204         RLNCF   r0x00, W
00003E 44E8           00205         RLNCF   WREG, W
000040 0BFC           00206         ANDLW   0xfc
000042 6E00           00207         MOVWF   _ADCON0
                      00208 ; ;ic:12:       _ADCON1 [k15 lr0:0 so:0]{ ia1 a2p0 re0 rm0 nos0 ru0 dp0}{volatile-unsigned-char sfr} = iTemp2 [k6 lr5:12 so:0]{ ia0 a2p0 re1 rm0 nos0 ru0 dp0}{unsigned-char fixed}{ sir@ _adc_open_pcfg_1_7}[r0x02 ] & 0x7f {const-unsigned-char literal}
                      00209 ;       .line   58; adc/adcopen.c       ADCON1 = (pcfg & 0x7f);
000044 0E7F           00210         MOVLW   0x7f
000046 1400           00211         ANDWF   r0x02, W
000048 6E00           00212         MOVWF   _ADCON1
gpasm-0.14.1 (Aug 18 2017)   libio18f1320_a-adcopen.asm8-18-2017  19:25:45          PAGE  5


LOC  OBJECT CODE     LINE SOURCE TEXT
  VALUE

                      00213 ; ;ic:13:       iTemp9 [k18 lr13:15 so:0]{ ia0 a2p0 re0 rm0 nos0 ru0 dp0}{unsigned-char register}[r0x00 ] = _ADCON2 [k17 lr0:0 so:0]{ ia0 a2p0 re0 rm0 nos0 ru0 dp0}{volatile-unsigned-char sfr} & 0x38 {const-unsigned-char literal}
                      00214 ;       .line   59; adc/adcopen.c       ADCON2 = (ADCON2 & 0x38) | (fosc & 0x07) | (config & ADC_FRM_RJUST);
00004A 0E38           00215         MOVLW   0x38
00004C 1400           00216         ANDWF   _ADCON2, W
00004E 6E00           00217         MOVWF   r0x00
                      00218 ; ;ic:14:       iTemp10 [k19 lr14:15 so:0]{ ia0 a2p0 re0 rm0 nos0 ru0 dp0}{unsigned-char register}[r0x01 ] = iTemp1 [k4 lr4:14 so:0]{ ia0 a2p0 re1 rm0 nos0 ru0 dp0}{unsigned-char fixed}{ sir@ _adc_open_fosc_1_7}[r0x01 ] & 0x7 {const-unsigned-char literal}
000050 0E07           00219         MOVLW   0x07
000052 1600           00220         ANDWF   r0x01, F
                      00221 ; ;ic:15:       iTemp11 [k20 lr15:17 so:0]{ ia0 a2p0 re0 rm0 nos0 ru0 dp0}{unsigned-char register}[r0x00 ] = iTemp9 [k18 lr13:15 so:0]{ ia0 a2p0 re0 rm0 nos0 ru0 dp0}{unsigned-char register}[r0x00 ] | iTemp10 [k19 lr14:15 so:0]{ ia0 a2p0 re0 rm0 nos0 ru0 dp0}{unsigned-char register}[r0x01 ]
000054 5000           00222         MOVF    r0x01, W
000056 1200           00223         IORWF   r0x00, F
                      00224 ; ;ic:16:       iTemp12 [k21 lr16:17 so:0]{ ia0 a2p0 re0 rm0 nos0 ru0 dp0}{unsigned-char register}[r0x01 ] = iTemp3 [k8 lr6:18 so:0]{ ia0 a2p0 re1 rm0 nos0 ru0 dp0}{unsigned-char fixed}{ sir@ _adc_open_config_1_7}[r0x03 ] & 0x80 {const-unsigned-char literal}
000058 0E80           00225         MOVLW   0x80
00005A 1400           00226         ANDWF   r0x03, W
                      00227 ; #     MOVWF   r0x01
                      00228 ; #;;ic:17:     _ADCON2 [k17 lr0:0 so:0]{ ia1 a2p0 re0 rm0 nos0 ru0 dp0}{volatile-unsigned-char sfr} = iTemp11 [k20 lr15:17 so:0]{ ia0 a2p0 re0 rm0 nos0 ru0 dp0}{unsigned-char register}[r0x00 ] | iTemp12 [k21 lr16:17 so:0]{ ia0 a2p0 re0 rm0 nos0 ru0 dp0}{unsigned-char register}[r0x01 ]
                      00229 ; #     MOVF    r0x01, W
00005C 1000           00230         IORWF   r0x00, W
00005E 6E00           00231         MOVWF   _ADCON2
                      00232 ; ;ic:18:       iTemp14 [k23 lr18:19 so:0]{ ia0 a2p0 re0 rm0 nos0 ru0 dp0}{unsigned-char register} = iTemp3 [k8 lr6:18 so:0]{ ia0 a2p0 re1 rm0 nos0 ru0 dp0}{unsigned-char fixed}{ sir@ _adc_open_config_1_7}[r0x03 ] & 0x40 {const-unsigned-char literal}
                      00233 ;       .line   103; adc/adcopen.c      if (config & ADC_INT_ON) {
000060 AC00           00234         BTFSS   r0x03, 6
000062 D000           00235         BRA     _00106_DS_
                      00236 ; ;ic:19:       if iTemp14 [k23 lr18:19 so:0]{ ia0 a2p0 re0 rm0 nos0 ru0 dp0}{unsigned-char register} == 0 goto _iffalse_0($2)
                      00237 ; ;ic:20:       iTemp15 [k25 lr20:21 so:0]{ ia0 a2p0 re0 rm1 nos0 ru0 dp0}{volatile-unsigned-bitfield {6,1} near* fixed}[remat] = &[_PIR1bits [k24 lr0:0 so:0]{ ia0 a2p0 re0 rm0 nos0 ru0 dp0}{volatile-struct __00000037 fixed}]
                      00238 ; ;ic:21:       iTemp16 [k27 lr21:22 so:0]{ ia0 a2p0 re0 rm1 nos0 ru0 dp0}{volatile-unsigned-bitfield {6,1} near* fixed}[remat] := iTemp15 [k25 lr20:21 so:0]{ ia0 a2p0 re0 rm1 nos0 ru0 dp0}{volatile-unsigned-bitfield {6,1} near* fixed}[remat]
                      00239 ; ;ic:22:       *(iTemp16 [k27 lr21:22 so:0]{ ia1 a2p0 re0 rm1 nos0 ru0 dp0}{volatile-unsigned-bitfield {6,1} near* fixed}[remat]) := 0x0 {const-unsigned-char literal}
                      00240 ;       .line   104; adc/adcopen.c      PIR1bits.ADIF = 0;
000064 9C00           00241         BCF     _PIR1bits, 6
                      00242 ; ;ic:23:       iTemp17 [k29 lr23:24 so:0]{ ia0 a2p0 re0 rm1 nos0 ru0 dp0}{volatile-unsigned-bitfield {6,1} near* fixed}[remat] = &[_PIE1bits [k28 lr0:0 so:0]{ ia0 a2p0 re0 rm0 nos0 ru0 dp0}{volatile-struct __00000035 fixed}]
                      00243 ; ;ic:24:       iTemp18 [k31 lr24:25 so:0]{ ia0 a2p0 re0 rm1 nos0 ru0 dp0}{volatile-unsigned-bitfield {6,1} near* fixed}[remat] := iTemp17 [k29 lr23:24 so:0]{ ia0 a2p0 re0 rm1 nos0 ru0 dp0}{volatile-unsigned-bitfield {6,1} near* fixed}[remat]
                      00244 ; ;ic:25:       *(iTemp18 [k31 lr24:25 so:0]{ ia1 a2p0 re0 rm1 nos0 ru0 dp0}{volatile-unsigned-bitfield {6,1} near* fixed}[remat]) := 0x1 {const-unsigned-char literal}
                      00245 ;       .line   105; adc/adcopen.c      PIE1bits.ADIE = 1;
000066 8C00           00246         BSF     _PIE1bits, 6
                      00247 ; ;ic:26:       iTemp19 [k33 lr26:27 so:0]{ ia0 a2p0 re0 rm1 nos0 ru0 dp0}{volatile-unsigned-bitfield {6,1} near* fixed}[remat] = &[_INTCONbits [k32 lr0:0 so:0]{ ia0 a2p0 re0 rm0 nos0 ru0 dp0}{volatile-struct __00000150 fixed}]
                      00248 ; ;ic:27:       iTemp20 [k35 lr27:28 so:0]{ ia0 a2p0 re0 rm1 nos0 ru0 dp0}{volatile-unsigned-bitfield {6,1} near* fixed}[remat] := iTemp19 [k33 lr26:27 so:0]{ ia0 a2p0 re0 rm1 nos0 ru0 dp0}{volatile-unsigned-bitfield {6,1} near* fixed}[remat]
                      00249 ; ;ic:28:       *(iTemp20 [k35 lr27:28 so:0]{ ia1 a2p0 re0 rm1 nos0 ru0 dp0}{volatile-unsigned-bitfield {6,1} near* fixed}[remat]) := 0x1 {const-unsigned-char literal}
                      00250 ;       .line   106; adc/adcopen.c      INTCONbits.PEIE = 1;
000068 8C00           00251         BSF     _INTCONbits, 6
                      00252 ; ;ic:29:  _iffalse_0($2) :
                      00253 ; ;ic:30:       iTemp21 [k37 lr30:31 so:0]{ ia0 a2p0 re0 rm1 nos0 ru0 dp0}{volatile-unsigned-bitfield {0,1} near* fixed}[remat] = &[_ADCON0bits [k36 lr0:0 so:0]{ ia0 a2p0 re0 rm0 nos0 ru0 dp0}{volatile-struct __00000084 fixed}]
                      00254 ; ;ic:31:       iTemp22 [k39 lr31:32 so:0]{ ia0 a2p0 re0 rm1 nos0 ru0 dp0}{volatile-unsigned-bitfield {0,1} near* fixed}[remat] := iTemp21 [k37 lr30:31 so:0]{ ia0 a2p0 re0 rm1 nos0 ru0 dp0}{volatile-unsigned-bitfield {0,1} near* fixed}[remat]
                      00255 ; ;ic:32:       *(iTemp22 [k39 lr31:32 so:0]{ ia1 a2p0 re0 rm1 nos0 ru0 dp0}{volatile-unsigned-bitfield {0,1} near* fixed}[remat]) := 0x1 {const-unsigned-char literal}
00006A                00256 _00106_DS_:
                      00257 ;       .line   110; adc/adcopen.c      ADCON0bits.ADON = 1;
00006A 8000           00258         BSF     _ADCON0bits, 0
                      00259 ; ;ic:33:  _return($3) :
                      00260 ; ;ic:34:       eproc _adc_open [k1 lr0:0 so:0]{ ia0 a2p0 re0 rm0 nos0 ru0 dp0}{void function ( unsigned-char fixed, unsigned-char fixed, unsigned-char fixed, unsigned-char fixed) fixed}
00006C CFE4 F000      00261         MOVFF   PREINC1, r0x03
000070 CFE4 F000      00262         MOVFF   PREINC1, r0x02
000074 CFE4 F000      00263         MOVFF   PREINC1, r0x01
000078 CFE4 F000      00264         MOVFF   PREINC1, r0x00
00007C CFE4 FFD9      00265         MOVFF   PREINC1, FSR2L
gpasm-0.14.1 (Aug 18 2017)   libio18f1320_a-adcopen.asm8-18-2017  19:25:45          PAGE  6


LOC  OBJECT CODE     LINE SOURCE TEXT
  VALUE

000080 0012           00266         RETURN  
                      00267 
                      00268 
                      00269 
                      00270 ; Statistics:
                      00271 ; code size:      130 (0x0082) bytes ( 0.10%)
                      00272 ;                  65 (0x0041) words
                      00273 ; udata size:       0 (0x0000) bytes ( 0.00%)
                      00274 ; access size:      4 (0x0004) bytes
                      00275 
                      00276 
                      00277         end
gpasm-0.14.1 (Aug 18 2017)   libio18f1320_a-adcopen.asm8-18-2017  19:25:45          PAGE  7


SYMBOL TABLE
  LABEL                             VALUE

FSR1L                             00000FE1
FSR2L                             00000FD9
PLUSW2                            00000FDB
POSTDEC1                          00000FE5
PREINC1                           00000FE4
WREG                              00000FE8
_00106_DS_                        0000006A
_ADCON0                           00000000
_ADCON0bits                       00000000
_ADCON1                           00000000
_ADCON1bits                       00000000
_ADCON2                           00000000
_ADCON2bits                       00000000
_ADRESH                           00000000
_ADRESL                           00000000
_BAUDCTL                          00000000
_BAUDCTLbits                      00000000
_BSR                              00000000
_CCP1CON                          00000000
_CCP1CONbits                      00000000
_CCPR1H                           00000000
_CCPR1L                           00000000
_ECCPAS                           00000000
_ECCPASbits                       00000000
_EEADR                            00000000
_EECON1                           00000000
_EECON1bits                       00000000
_EECON2                           00000000
_EEDATA                           00000000
_FSR0H                            00000000
_FSR0L                            00000000
_FSR1H                            00000000
_FSR1L                            00000000
_FSR2H                            00000000
_FSR2L                            00000000
_INDF0                            00000000
_INDF1                            00000000
_INDF2                            00000000
_INTCON                           00000000
_INTCON2                          00000000
_INTCON2bits                      00000000
_INTCON3                          00000000
_INTCON3bits                      00000000
_INTCONbits                       00000000
_IPR1                             00000000
_IPR1bits                         00000000
_IPR2                             00000000
_IPR2bits                         00000000
_LATA                             00000000
_LATAbits                         00000000
_LATB                             00000000
_LATBbits                         00000000
_LVDCON                           00000000
gpasm-0.14.1 (Aug 18 2017)   libio18f1320_a-adcopen.asm8-18-2017  19:25:45          PAGE  8


SYMBOL TABLE
  LABEL                             VALUE 

_LVDCONbits                       00000000
_OSCCON                           00000000
_OSCCONbits                       00000000
_PCL                              00000000
_PCLATH                           00000000
_PCLATU                           00000000
_PIE1                             00000000
_PIE1bits                         00000000
_PIE2                             00000000
_PIE2bits                         00000000
_PIR1                             00000000
_PIR1bits                         00000000
_PIR2                             00000000
_PIR2bits                         00000000
_PLUSW0                           00000000
_PLUSW1                           00000000
_PLUSW2                           00000000
_PORTA                            00000000
_PORTAbits                        00000000
_PORTB                            00000000
_PORTBbits                        00000000
_POSTDEC0                         00000000
_POSTDEC1                         00000000
_POSTDEC2                         00000000
_POSTINC0                         00000000
_POSTINC1                         00000000
_POSTINC2                         00000000
_PR2                              00000000
_PREINC0                          00000000
_PREINC1                          00000000
_PREINC2                          00000000
_PRODH                            00000000
_PRODL                            00000000
_RCON                             00000000
_RCONbits                         00000000
_RCREG                            00000000
_RCSTA                            00000000
_RCSTAbits                        00000000
_SPBRG                            00000000
_SPBRGH                           00000000
_STATUS                           00000000
_STATUSbits                       00000000
_STKPTR                           00000000
_STKPTRbits                       00000000
_T0CON                            00000000
_T0CONbits                        00000000
_T1CON                            00000000
_T1CONbits                        00000000
_T2CON                            00000000
_T2CONbits                        00000000
_T3CON                            00000000
_T3CONbits                        00000000
_TABLAT                           00000000
gpasm-0.14.1 (Aug 18 2017)   libio18f1320_a-adcopen.asm8-18-2017  19:25:45          PAGE  9


SYMBOL TABLE
  LABEL                             VALUE 

_TBLPTRH                          00000000
_TBLPTRL                          00000000
_TBLPTRU                          00000000
_TMR0H                            00000000
_TMR0L                            00000000
_TMR1H                            00000000
_TMR1L                            00000000
_TMR2                             00000000
_TMR3H                            00000000
_TMR3L                            00000000
_TOSH                             00000000
_TOSL                             00000000
_TOSU                             00000000
_TRISA                            00000000
_TRISAbits                        00000000
_TRISB                            00000000
_TRISBbits                        00000000
_TXREG                            00000000
_TXSTA                            00000000
_TXSTAbits                        00000000
_WDTCON                           00000000
_WDTCONbits                       00000000
_WREG                             00000000
__18F1320                         00000001
_adc_open                         00000000
r0x00                             00000000
r0x01                             00000001
r0x02                             00000002
r0x03                             00000003

Errors   :     0
Warnings :     0 reported,     0 suppressed
Messages :     0 reported,     0 suppressed

