gpasm-0.14.1 (Aug 18 2017)   libio18f2220_a-i2cwritec.asm8-18-2017  19:27:52          PAGE  1


LOC  OBJECT CODE     LINE SOURCE TEXT
  VALUE

                      00001 ;--------------------------------------------------------
                      00002 ; File Created by SDCC : free open source ANSI-C Compiler
                      00003 ; Version 3.2.0 #8004 (Aug 18 2017) (MINGW32)
                      00004 ; This file was generated Fri Aug 18 19:27:52 2017
                      00005 ;--------------------------------------------------------
                      00006 ; PIC16 port for the Microchip 16-bit core micros
                      00007 ;--------------------------------------------------------
                      00008         list    p=18f2220
                      00009 
                      00010         radix dec
                      00011 
                      00012 ;--------------------------------------------------------
                      00013 ; public variables in this module
                      00014 ;--------------------------------------------------------
                      00015         global  _i2c_writechar
                      00016 
                      00017 ;--------------------------------------------------------
                      00018 ; extern variables in this module
                      00019 ;--------------------------------------------------------
                      00020         extern  _PORTAbits
                      00021         extern  _PORTBbits
                      00022         extern  _PORTCbits
                      00023         extern  _LATAbits
                      00024         extern  _LATBbits
                      00025         extern  _LATCbits
                      00026         extern  _TRISAbits
                      00027         extern  _TRISBbits
                      00028         extern  _TRISCbits
                      00029         extern  _OSCTUNEbits
                      00030         extern  _PIE1bits
                      00031         extern  _PIR1bits
                      00032         extern  _IPR1bits
                      00033         extern  _PIE2bits
                      00034         extern  _PIR2bits
                      00035         extern  _IPR2bits
                      00036         extern  _EECON1bits
                      00037         extern  _RCSTAbits
                      00038         extern  _TXSTAbits
                      00039         extern  _T3CONbits
                      00040         extern  _CMCONbits
                      00041         extern  _CVRCONbits
                      00042         extern  _CCP2CONbits
                      00043         extern  _CCP1CONbits
                      00044         extern  _ADCON2bits
                      00045         extern  _ADCON1bits
                      00046         extern  _ADCON0bits
                      00047         extern  _SSPCON2bits
                      00048         extern  _SSPCON1bits
                      00049         extern  _SSPSTATbits
                      00050         extern  _T2CONbits
                      00051         extern  _T1CONbits
                      00052         extern  _RCONbits
                      00053         extern  _WDTCONbits
gpasm-0.14.1 (Aug 18 2017)   libio18f2220_a-i2cwritec.asm8-18-2017  19:27:52          PAGE  2


LOC  OBJECT CODE     LINE SOURCE TEXT
  VALUE

                      00054         extern  _LVDCONbits
                      00055         extern  _OSCCONbits
                      00056         extern  _T0CONbits
                      00057         extern  _STATUSbits
                      00058         extern  _INTCON3bits
                      00059         extern  _INTCON2bits
                      00060         extern  _INTCONbits
                      00061         extern  _STKPTRbits
                      00062         extern  _PORTA
                      00063         extern  _PORTB
                      00064         extern  _PORTC
                      00065         extern  _LATA
                      00066         extern  _LATB
                      00067         extern  _LATC
                      00068         extern  _TRISA
                      00069         extern  _TRISB
                      00070         extern  _TRISC
                      00071         extern  _OSCTUNE
                      00072         extern  _PIE1
                      00073         extern  _PIR1
                      00074         extern  _IPR1
                      00075         extern  _PIE2
                      00076         extern  _PIR2
                      00077         extern  _IPR2
                      00078         extern  _EECON1
                      00079         extern  _EECON2
                      00080         extern  _EEDATA
                      00081         extern  _EEADR
                      00082         extern  _RCSTA
                      00083         extern  _TXSTA
                      00084         extern  _TXREG
                      00085         extern  _RCREG
                      00086         extern  _SPBRG
                      00087         extern  _T3CON
                      00088         extern  _TMR3L
                      00089         extern  _TMR3H
                      00090         extern  _CMCON
                      00091         extern  _CVRCON
                      00092         extern  _CCP2CON
                      00093         extern  _CCPR2L
                      00094         extern  _CCPR2H
                      00095         extern  _CCP1CON
                      00096         extern  _CCPR1L
                      00097         extern  _CCPR1H
                      00098         extern  _ADCON2
                      00099         extern  _ADCON1
                      00100         extern  _ADCON0
                      00101         extern  _ADRESL
                      00102         extern  _ADRESH
                      00103         extern  _SSPCON2
                      00104         extern  _SSPCON1
                      00105         extern  _SSPSTAT
                      00106         extern  _SSPADD
gpasm-0.14.1 (Aug 18 2017)   libio18f2220_a-i2cwritec.asm8-18-2017  19:27:52          PAGE  3


LOC  OBJECT CODE     LINE SOURCE TEXT
  VALUE

                      00107         extern  _SSPBUF
                      00108         extern  _T2CON
                      00109         extern  _PR2
                      00110         extern  _TMR2
                      00111         extern  _T1CON
                      00112         extern  _TMR1L
                      00113         extern  _TMR1H
                      00114         extern  _RCON
                      00115         extern  _WDTCON
                      00116         extern  _LVDCON
                      00117         extern  _OSCCON
                      00118         extern  _T0CON
                      00119         extern  _TMR0L
                      00120         extern  _TMR0H
                      00121         extern  _STATUS
                      00122         extern  _FSR2L
                      00123         extern  _FSR2H
                      00124         extern  _PLUSW2
                      00125         extern  _PREINC2
                      00126         extern  _POSTDEC2
                      00127         extern  _POSTINC2
                      00128         extern  _INDF2
                      00129         extern  _BSR
                      00130         extern  _FSR1L
                      00131         extern  _FSR1H
                      00132         extern  _PLUSW1
                      00133         extern  _PREINC1
                      00134         extern  _POSTDEC1
                      00135         extern  _POSTINC1
                      00136         extern  _INDF1
                      00137         extern  _WREG
                      00138         extern  _FSR0L
                      00139         extern  _FSR0H
                      00140         extern  _PLUSW0
                      00141         extern  _PREINC0
                      00142         extern  _POSTDEC0
                      00143         extern  _POSTINC0
                      00144         extern  _INDF0
                      00145         extern  _INTCON3
                      00146         extern  _INTCON2
                      00147         extern  _INTCON
                      00148         extern  _PRODL
                      00149         extern  _PRODH
                      00150         extern  _TABLAT
                      00151         extern  _TBLPTRL
                      00152         extern  _TBLPTRH
                      00153         extern  _TBLPTRU
                      00154         extern  _PCL
                      00155         extern  _PCLATH
                      00156         extern  _PCLATU
                      00157         extern  _STKPTR
                      00158         extern  _TOSL
                      00159         extern  _TOSH
gpasm-0.14.1 (Aug 18 2017)   libio18f2220_a-i2cwritec.asm8-18-2017  19:27:52          PAGE  4


LOC  OBJECT CODE     LINE SOURCE TEXT
  VALUE

                      00160         extern  _TOSU
                      00161 
                      00162 ;--------------------------------------------------------
                      00163 ;       Equates to used internal registers
                      00164 ;--------------------------------------------------------
  00000FD8            00165 STATUS  equ     0xfd8
  00000FE8            00166 WREG    equ     0xfe8
  00000FE1            00167 FSR1L   equ     0xfe1
  00000FD9            00168 FSR2L   equ     0xfd9
  00000FE5            00169 POSTDEC1        equ     0xfe5
  00000FE4            00170 PREINC1 equ     0xfe4
  00000FDB            00171 PLUSW2  equ     0xfdb
                      00172 
                      00173 
                      00174 ; Internal registers
                      00175 .registers      udata_ovr       0x0000
000000                00176 r0x00   res     1
000001                00177 r0x01   res     1
                      00178 
                      00179 ;--------------------------------------------------------
                      00180 ; global & static initialisations
                      00181 ;--------------------------------------------------------
                      00182 ; I code from now on!
                      00183 ; ; Starting pCode block
                      00184 ; ;ic:1:  _entry($7) :
                      00185 ; ;ic:2:        proc _i2c_writechar [k1 lr0:0 so:0]{ ia0 a2p0 re0 rm0 nos0 ru0 dp0}{char function ( unsigned-char fixed) fixed}
                      00186 S_i2cwritec__i2c_writechar      code
000000                00187 _i2c_writechar:
                      00188 ;       .line   32; i2c/i2cwritec.c     char i2c_writechar(unsigned char dat)
000000 CFD9 FFE5      00189         MOVFF   FSR2L, POSTDEC1
000004 CFE1 FFD9      00190         MOVFF   FSR1L, FSR2L
000008 C000 FFE5      00191         MOVFF   r0x00, POSTDEC1
00000C C000 FFE5      00192         MOVFF   r0x01, POSTDEC1
                      00193 ; ;ic:3: iTemp0 [k2 lr3:7 so:0]{ ia0 a2p0 re1 rm0 nos0 ru0 dp0}{unsigned-char fixed}{ sir@ _i2c_writechar_dat_1_14}[r0x00 ] = recv _i2c_writechar [k1 lr0:0 so:0]{ ia0 a2p0 re0 rm0 nos0 ru0 dp0}{char function ( unsigned-char fixed) fixed}
000010 0E02           00194         MOVLW   0x02
000012 CFDB F000      00195         MOVFF   PLUSW2, r0x00
                      00196 ; ;ic:4:        iTemp1 [k5 lr4:5 so:0]{ ia0 a2p0 re0 rm1 nos0 ru0 dp0}{volatile-unsigned-bitfield {7,1} near* fixed}[remat] = &[_SSPCON1bits [k4 lr0:0 so:0]{ ia0 a2p0 re0 rm0 nos0 ru0 dp0}{volatile-struct __00000116 fixed}]
                      00197 ; ;ic:5:        iTemp2 [k7 lr5:6 so:0]{ ia0 a2p0 re0 rm1 nos0 ru0 dp0}{volatile-unsigned-bitfield {7,1} near* fixed}[remat] := iTemp1 [k5 lr4:5 so:0]{ ia0 a2p0 re0 rm1 nos0 ru0 dp0}{volatile-unsigned-bitfield {7,1} near* fixed}[remat]
                      00198 ; ;ic:6:        *(iTemp2 [k7 lr5:6 so:0]{ ia1 a2p0 re0 rm1 nos0 ru0 dp0}{volatile-unsigned-bitfield {7,1} near* fixed}[remat]) := 0x0 {const-unsigned-char literal}
                      00199 ;       .line   34; i2c/i2cwritec.c     SSPCON1bits.WCOL = 0;
000016 9E00           00200         BCF     _SSPCON1bits, 7
                      00201 ; ;ic:7:        _SSPBUF [k8 lr0:0 so:0]{ ia1 a2p0 re0 rm0 nos0 ru0 dp0}{volatile-unsigned-char sfr} := iTemp0 [k2 lr3:7 so:0]{ ia0 a2p0 re1 rm0 nos0 ru0 dp0}{unsigned-char fixed}{ sir@ _i2c_writechar_dat_1_14}[r0x00 ]
                      00202 ;       .line   35; i2c/i2cwritec.c     SSPBUF = dat;
000018 C000 F000      00203         MOVFF   r0x00, _SSPBUF
                      00204 ; ;ic:8:        iTemp3 [k9 lr8:9 so:0]{ ia0 a2p0 re0 rm1 nos0 ru0 dp0}{volatile-unsigned-bitfield {7,1} near* fixed}[remat] = &[_SSPCON1bits [k4 lr0:0 so:0]{ ia0 a2p0 re0 rm0 nos0 ru0 dp0}{volatile-struct __00000116 fixed}]
                      00205 ; ;ic:9:        iTemp4 [k11 lr9:10 so:0]{ ia0 a2p0 re0 rm1 nos0 ru0 dp0}{volatile-unsigned-bitfield {7,1} near* fixed}[remat] := iTemp3 [k9 lr8:9 so:0]{ ia0 a2p0 re0 rm1 nos0 ru0 dp0}{volatile-unsigned-bitfield {7,1} near* fixed}[remat]
                      00206 ; ;ic:10:       iTemp5 [k12 lr10:11 so:0]{ ia0 a2p0 re0 rm0 nos0 ru0 dp0}{volatile-unsigned-bitfield {7,1} fixed}[bad ] = @[iTemp4 [k11 lr9:10 so:0]{ ia1 a2p0 re0 rm1 nos0 ru0 dp0}{volatile-unsigned-bitfield {7,1} near* fixed}[remat] + 0x0 {const-unsigned-char literal}]
                      00207 ;       .line   36; i2c/i2cwritec.c     if( SSPCON1bits.WCOL ) {
00001C AE00           00208         BTFSS   _SSPCON1bits, 7
00001E D000           00209         BRA     _00105_DS_
                      00210 ; ;ic:11:       if iTemp5 [k12 lr10:11 so:0]{ ia0 a2p0 re0 rm0 nos0 ru0 dp0}{volatile-unsigned-bitfield {7,1} fixed}[bad ] == 0 goto _docontinue_0($1)
                      00211 ; ;ic:12:       ret 0xffffffff {const-char literal}
                      00212 ;       .line   37; i2c/i2cwritec.c     return -1;
gpasm-0.14.1 (Aug 18 2017)   libio18f2220_a-i2cwritec.asm8-18-2017  19:27:52          PAGE  5


LOC  OBJECT CODE     LINE SOURCE TEXT
  VALUE

000020 68E8           00213         SETF    WREG
000022 D000           00214         BRA     _00110_DS_
                      00215 ; ;ic:14:  _docontinue_0($1) :
                      00216 ; ;ic:15:       iTemp6 [k14 lr15:19 so:0]{ ia0 a2p0 re0 rm0 nos0 ru0 dp0}{unsigned-char register}[r0x00 ] = _SSPCON2 [k13 lr0:0 so:0]{ ia0 a2p0 re0 rm0 nos0 ru0 dp0}{volatile-unsigned-char sfr} & 0x1f {const-unsigned-char literal}
000024                00217 _00105_DS_:
                      00218 ;       .line   39; i2c/i2cwritec.c     I2C_IDLE();
000024 0E1F           00219         MOVLW   0x1f
000026 1400           00220         ANDWF   _SSPCON2, W
000028 6E00           00221         MOVWF   r0x00
                      00222 ; ;ic:16:       iTemp7 [k16 lr16:17 so:0]{ ia0 a2p0 re0 rm1 nos0 ru0 dp0}{volatile-unsigned-bitfield {2,1} near* fixed}[remat] = &[_SSPSTATbits [k15 lr0:0 so:0]{ ia0 a2p0 re0 rm0 nos0 ru0 dp0}{volatile-struct __00000118 fixed}]
                      00223 ; ;ic:17:       iTemp8 [k18 lr17:18 so:0]{ ia0 a2p0 re0 rm1 nos0 ru0 dp0}{volatile-unsigned-bitfield {2,1} near* fixed}[remat] := iTemp7 [k16 lr16:17 so:0]{ ia0 a2p0 re0 rm1 nos0 ru0 dp0}{volatile-unsigned-bitfield {2,1} near* fixed}[remat]
                      00224 ; ;ic:18:       iTemp9 [k19 lr18:20 so:0]{ ia0 a2p0 re0 rm0 nos0 ru0 dp0}{volatile-unsigned-bitfield {2,1} fixed}[r0x01 ] = @[iTemp8 [k18 lr17:18 so:0]{ ia1 a2p0 re0 rm1 nos0 ru0 dp0}{volatile-unsigned-bitfield {2,1} near* fixed}[remat] + 0x0 {const-unsigned-char literal}]
00002A 6A00           00225         CLRF    r0x01
00002C B400           00226         BTFSC   _SSPSTATbits, 2
00002E 2A00           00227         INCF    r0x01, F
                      00228 ; ;ic:19:       iTemp10 [k20 lr19:21 so:0]{ ia0 a2p0 re0 rm0 nos0 ru0 dp0}{char register}[r0x00 ] = (char register)iTemp6 [k14 lr15:19 so:0]{ ia0 a2p0 re0 rm0 nos0 ru0 dp0}{unsigned-char register}[r0x00 ]
                      00229 ; ;ic:20:       iTemp11 [k21 lr20:21 so:0]{ ia0 a2p0 re0 rm0 nos0 ru0 dp0}{char register}[r0x01 ] = (char register)iTemp9 [k19 lr18:20 so:0]{ ia0 a2p0 re0 rm0 nos0 ru0 dp0}{volatile-unsigned-bitfield {2,1} fixed}[r0x01 ]
                      00230 ; ;ic:21:       iTemp12 [k22 lr21:22 so:0]{ ia0 a2p0 re0 rm0 nos0 ru0 dp0}{char register}[r0x00 ] = iTemp10 [k20 lr19:21 so:0]{ ia0 a2p0 re0 rm0 nos0 ru0 dp0}{char register}[r0x00 ] | iTemp11 [k21 lr20:21 so:0]{ ia0 a2p0 re0 rm0 nos0 ru0 dp0}{char register}[r0x01 ]
000030 5000           00231         MOVF    r0x01, W
000032 1200           00232         IORWF   r0x00, F
                      00233 ; ;ic:22:       if iTemp12 [k22 lr21:22 so:0]{ ia0 a2p0 re0 rm0 nos0 ru0 dp0}{char register}[r0x00 ] != 0 goto _docontinue_0($1)
000034 5000           00234         MOVF    r0x00, W
000036 E100           00235         BNZ     _00105_DS_
                      00236 ; ;ic:23:       ret 0x0 {const-unsigned-char literal}
                      00237 ;       .line   40; i2c/i2cwritec.c     return 0;
000038 6AE8           00238         CLRF    WREG
                      00239 ; ;ic:24:  _return($6) :
                      00240 ; ;ic:25:       eproc _i2c_writechar [k1 lr0:0 so:0]{ ia0 a2p0 re0 rm0 nos0 ru0 dp0}{char function ( unsigned-char fixed) fixed}
00003A                00241 _00110_DS_:
00003A CFE4 F000      00242         MOVFF   PREINC1, r0x01
00003E CFE4 F000      00243         MOVFF   PREINC1, r0x00
000042 CFE4 FFD9      00244         MOVFF   PREINC1, FSR2L
000046 0012           00245         RETURN  
                      00246 
                      00247 
                      00248 
                      00249 ; Statistics:
                      00250 ; code size:       72 (0x0048) bytes ( 0.05%)
                      00251 ;                  36 (0x0024) words
                      00252 ; udata size:       0 (0x0000) bytes ( 0.00%)
                      00253 ; access size:      2 (0x0002) bytes
                      00254 
                      00255 
                      00256         end
gpasm-0.14.1 (Aug 18 2017)   libio18f2220_a-i2cwritec.asm8-18-2017  19:27:52          PAGE  6


SYMBOL TABLE
  LABEL                             VALUE

FSR1L                             00000FE1
FSR2L                             00000FD9
PLUSW2                            00000FDB
POSTDEC1                          00000FE5
PREINC1                           00000FE4
STATUS                            00000FD8
WREG                              00000FE8
_00105_DS_                        00000024
_00110_DS_                        0000003A
_ADCON0                           00000000
_ADCON0bits                       00000000
_ADCON1                           00000000
_ADCON1bits                       00000000
_ADCON2                           00000000
_ADCON2bits                       00000000
_ADRESH                           00000000
_ADRESL                           00000000
_BSR                              00000000
_CCP1CON                          00000000
_CCP1CONbits                      00000000
_CCP2CON                          00000000
_CCP2CONbits                      00000000
_CCPR1H                           00000000
_CCPR1L                           00000000
_CCPR2H                           00000000
_CCPR2L                           00000000
_CMCON                            00000000
_CMCONbits                        00000000
_CVRCON                           00000000
_CVRCONbits                       00000000
_EEADR                            00000000
_EECON1                           00000000
_EECON1bits                       00000000
_EECON2                           00000000
_EEDATA                           00000000
_FSR0H                            00000000
_FSR0L                            00000000
_FSR1H                            00000000
_FSR1L                            00000000
_FSR2H                            00000000
_FSR2L                            00000000
_INDF0                            00000000
_INDF1                            00000000
_INDF2                            00000000
_INTCON                           00000000
_INTCON2                          00000000
_INTCON2bits                      00000000
_INTCON3                          00000000
_INTCON3bits                      00000000
_INTCONbits                       00000000
_IPR1                             00000000
_IPR1bits                         00000000
_IPR2                             00000000
gpasm-0.14.1 (Aug 18 2017)   libio18f2220_a-i2cwritec.asm8-18-2017  19:27:52          PAGE  7


SYMBOL TABLE
  LABEL                             VALUE 

_IPR2bits                         00000000
_LATA                             00000000
_LATAbits                         00000000
_LATB                             00000000
_LATBbits                         00000000
_LATC                             00000000
_LATCbits                         00000000
_LVDCON                           00000000
_LVDCONbits                       00000000
_OSCCON                           00000000
_OSCCONbits                       00000000
_OSCTUNE                          00000000
_OSCTUNEbits                      00000000
_PCL                              00000000
_PCLATH                           00000000
_PCLATU                           00000000
_PIE1                             00000000
_PIE1bits                         00000000
_PIE2                             00000000
_PIE2bits                         00000000
_PIR1                             00000000
_PIR1bits                         00000000
_PIR2                             00000000
_PIR2bits                         00000000
_PLUSW0                           00000000
_PLUSW1                           00000000
_PLUSW2                           00000000
_PORTA                            00000000
_PORTAbits                        00000000
_PORTB                            00000000
_PORTBbits                        00000000
_PORTC                            00000000
_PORTCbits                        00000000
_POSTDEC0                         00000000
_POSTDEC1                         00000000
_POSTDEC2                         00000000
_POSTINC0                         00000000
_POSTINC1                         00000000
_POSTINC2                         00000000
_PR2                              00000000
_PREINC0                          00000000
_PREINC1                          00000000
_PREINC2                          00000000
_PRODH                            00000000
_PRODL                            00000000
_RCON                             00000000
_RCONbits                         00000000
_RCREG                            00000000
_RCSTA                            00000000
_RCSTAbits                        00000000
_SPBRG                            00000000
_SSPADD                           00000000
_SSPBUF                           00000000
gpasm-0.14.1 (Aug 18 2017)   libio18f2220_a-i2cwritec.asm8-18-2017  19:27:52          PAGE  8


SYMBOL TABLE
  LABEL                             VALUE 

_SSPCON1                          00000000
_SSPCON1bits                      00000000
_SSPCON2                          00000000
_SSPCON2bits                      00000000
_SSPSTAT                          00000000
_SSPSTATbits                      00000000
_STATUS                           00000000
_STATUSbits                       00000000
_STKPTR                           00000000
_STKPTRbits                       00000000
_T0CON                            00000000
_T0CONbits                        00000000
_T1CON                            00000000
_T1CONbits                        00000000
_T2CON                            00000000
_T2CONbits                        00000000
_T3CON                            00000000
_T3CONbits                        00000000
_TABLAT                           00000000
_TBLPTRH                          00000000
_TBLPTRL                          00000000
_TBLPTRU                          00000000
_TMR0H                            00000000
_TMR0L                            00000000
_TMR1H                            00000000
_TMR1L                            00000000
_TMR2                             00000000
_TMR3H                            00000000
_TMR3L                            00000000
_TOSH                             00000000
_TOSL                             00000000
_TOSU                             00000000
_TRISA                            00000000
_TRISAbits                        00000000
_TRISB                            00000000
_TRISBbits                        00000000
_TRISC                            00000000
_TRISCbits                        00000000
_TXREG                            00000000
_TXSTA                            00000000
_TXSTAbits                        00000000
_WDTCON                           00000000
_WDTCONbits                       00000000
_WREG                             00000000
__18F2220                         00000001
_i2c_writechar                    00000000
r0x00                             00000000
r0x01                             00000001

Errors   :     0
Warnings :     0 reported,     0 suppressed
Messages :     0 reported,     0 suppressed

